ARM GAS  C:\Users\Mathieu\AppData\Local\Temp\ccJNHpye.s 			page 1


   1              		.syntax unified
   2              		.cpu cortex-m4
   3              		.eabi_attribute 27, 1
   4              		.fpu fpv4-sp-d16
   5              		.eabi_attribute 20, 1
   6              		.eabi_attribute 21, 1
   7              		.eabi_attribute 23, 3
   8              		.eabi_attribute 24, 1
   9              		.eabi_attribute 25, 1
  10              		.eabi_attribute 26, 1
  11              		.eabi_attribute 30, 1
  12              		.eabi_attribute 34, 1
  13              		.eabi_attribute 18, 4
  14              		.thumb
  15              		.syntax unified
  16              		.file	"main_cm4.c"
  17              		.text
  18              	.Ltext0:
  19              		.cfi_sections	.debug_frame
  20              		.section	.text.I2C_WriteBytes,"ax",%progbits
  21              		.align	2
  22              		.global	I2C_WriteBytes
  23              		.thumb
  24              		.thumb_func
  25              		.type	I2C_WriteBytes, %function
  26              	I2C_WriteBytes:
  27              	.LFB513:
  28              		.file 1 "main_cm4.c"
   1:main_cm4.c    **** 
   2:main_cm4.c    **** /*
   3:main_cm4.c    **** * Valeur d'accélération obtenues via I2C affichée dans Tera 
   4:main_cm4.c    **** *
   5:main_cm4.c    **** * 
   6:main_cm4.c    **** * Pour que le projet marche, vous devez cocher RTOS et I/O dans la pdl :
   7:main_cm4.c    **** * --> click droit sur le projet --> build setting --> PDL --> cocher
   8:main_cm4.c    **** *
   9:main_cm4.c    **** * TERA : Baud rate = 115200
  10:main_cm4.c    **** */
  11:main_cm4.c    **** 
  12:main_cm4.c    **** //Includes
  13:main_cm4.c    **** 	#include "project.h"
  14:main_cm4.c    **** 	#include "bmi160.h"
  15:main_cm4.c    **** 	#include "FreeRTOS.h"
  16:main_cm4.c    **** 	#include "task.h"
  17:main_cm4.c    **** 	#include <stdio.h>
  18:main_cm4.c    **** 	#include "semphr.h"
  19:main_cm4.c    **** 
  20:main_cm4.c    **** //Définitions 
  21:main_cm4.c    **** 
  22:main_cm4.c    **** 	/* Priority of user tasks in this project */
  23:main_cm4.c    **** 	#define TASK_MOTION_SENSOR_PRIORITY (configMAX_PRIORITIES - 1)
  24:main_cm4.c    **** 
  25:main_cm4.c    **** 	/* Stack size of user tasks in this project */
  26:main_cm4.c    **** 	#define TASK_MOTION_SENSOR_STACK_SIZE   (configMINIMAL_STACK_SIZE)
  27:main_cm4.c    **** 
  28:main_cm4.c    **** 	/* Semaphore handle for I2C */
  29:main_cm4.c    **** 	SemaphoreHandle_t xSemaphoreI2C;   
ARM GAS  C:\Users\Mathieu\AppData\Local\Temp\ccJNHpye.s 			page 2


  30:main_cm4.c    **** 
  31:main_cm4.c    **** 	/* Taille du buffer I2C */
  32:main_cm4.c    **** 	#define I2C_BUFFER_SIZE (10u)
  33:main_cm4.c    ****     
  34:main_cm4.c    **** 	//Structure contenant l'information du BMI160
  35:main_cm4.c    **** 	static struct bmi160_dev sensor; 
  36:main_cm4.c    **** 	
  37:main_cm4.c    **** 	//Handler pour la tâche du capteur de mouvement
  38:main_cm4.c    **** 	extern TaskHandle_t xTaskHandleMotion; 
  39:main_cm4.c    **** 
  40:main_cm4.c    **** //Fonctions et tâches
  41:main_cm4.c    **** 
  42:main_cm4.c    **** 	//Fonction d'écriture I2C
  43:main_cm4.c    **** 	unsigned int I2C_WriteBytes(uint8_t Address, uint8_t RegisterAddr, uint8_t *RegisterValue, uint8_t
  44:main_cm4.c    **** 	{
  29              		.loc 1 44 0
  30              		.cfi_startproc
  31              		@ args = 0, pretend = 0, frame = 16
  32              		@ frame_needed = 0, uses_anonymous_args = 0
  33              	.LVL0:
  34 0000 F0B5     		push	{r4, r5, r6, r7, lr}
  35              		.cfi_def_cfa_offset 20
  36              		.cfi_offset 4, -20
  37              		.cfi_offset 5, -16
  38              		.cfi_offset 6, -12
  39              		.cfi_offset 7, -8
  40              		.cfi_offset 14, -4
  41 0002 85B0     		sub	sp, sp, #20
  42              		.cfi_def_cfa_offset 40
  43 0004 0646     		mov	r6, r0
  44 0006 1746     		mov	r7, r2
  45 0008 1C46     		mov	r4, r3
  45:main_cm4.c    **** 		/* Variable used for status of I2C operation */
  46:main_cm4.c    **** 		unsigned int status;
  47:main_cm4.c    **** 		
  48:main_cm4.c    **** 		/* Temporary buffer used for I2C transfer */ 
  49:main_cm4.c    **** 		static uint8_t tempBuff[I2C_BUFFER_SIZE];
  50:main_cm4.c    **** 		tempBuff[0] = RegisterAddr;
  46              		.loc 1 50 0
  47 000a 0F4D     		ldr	r5, .L3
  48 000c 2846     		mov	r0, r5
  49              	.LVL1:
  50 000e 00F8011B 		strb	r1, [r0], #1
  51:main_cm4.c    **** 		memcpy(tempBuff+1, RegisterValue, RegisterLen);
  51              		.loc 1 51 0
  52 0012 1A46     		mov	r2, r3
  53              	.LVL2:
  54 0014 3946     		mov	r1, r7
  55              	.LVL3:
  56 0016 FFF7FEFF 		bl	memcpy
  57              	.LVL4:
  52:main_cm4.c    **** 
  53:main_cm4.c    **** 		/* Local variables for storing I2C Master transfer configuration structure */
  54:main_cm4.c    **** 		cy_stc_scb_i2c_master_xfer_config_t config = 
  58              		.loc 1 54 0
  59 001a 8DF80060 		strb	r6, [sp]
  60 001e 0195     		str	r5, [sp, #4]
ARM GAS  C:\Users\Mathieu\AppData\Local\Temp\ccJNHpye.s 			page 3


  55:main_cm4.c    **** 		{  
  56:main_cm4.c    **** 			.slaveAddress = (uint32)Address,
  57:main_cm4.c    **** 			.buffer =  tempBuff,
  58:main_cm4.c    **** 			.bufferSize = RegisterLen+1,
  61              		.loc 1 58 0
  62 0020 0134     		adds	r4, r4, #1
  54:main_cm4.c    **** 		{  
  63              		.loc 1 54 0
  64 0022 0294     		str	r4, [sp, #8]
  65 0024 0023     		movs	r3, #0
  66 0026 8DF80C30 		strb	r3, [sp, #12]
  67              	.LVL5:
  68              	.LBB16:
  69              	.LBB17:
  70              		.file 2 "Generated_Source\\PSoC6/I2C.h"
   1:Generated_Source\PSoC6/I2C.h **** /***************************************************************************//**
   2:Generated_Source\PSoC6/I2C.h **** * \file I2C.c
   3:Generated_Source\PSoC6/I2C.h **** * \version 2.0
   4:Generated_Source\PSoC6/I2C.h **** *
   5:Generated_Source\PSoC6/I2C.h **** *  This file provides constants and parameter values for the I2C component.
   6:Generated_Source\PSoC6/I2C.h **** *
   7:Generated_Source\PSoC6/I2C.h **** ********************************************************************************
   8:Generated_Source\PSoC6/I2C.h **** * \copyright
   9:Generated_Source\PSoC6/I2C.h **** * Copyright 2016-2017, Cypress Semiconductor Corporation. All rights reserved.
  10:Generated_Source\PSoC6/I2C.h **** * You may use this file only in accordance with the license, terms, conditions,
  11:Generated_Source\PSoC6/I2C.h **** * disclaimers, and limitations in the end user license agreement accompanying
  12:Generated_Source\PSoC6/I2C.h **** * the software package with which this file was provided.
  13:Generated_Source\PSoC6/I2C.h **** *******************************************************************************/
  14:Generated_Source\PSoC6/I2C.h **** 
  15:Generated_Source\PSoC6/I2C.h **** #if !defined(I2C_CY_SCB_I2C_PDL_H)
  16:Generated_Source\PSoC6/I2C.h **** #define I2C_CY_SCB_I2C_PDL_H
  17:Generated_Source\PSoC6/I2C.h **** 
  18:Generated_Source\PSoC6/I2C.h **** #include "cyfitter.h"
  19:Generated_Source\PSoC6/I2C.h **** #include "scb/cy_scb_i2c.h"
  20:Generated_Source\PSoC6/I2C.h **** 
  21:Generated_Source\PSoC6/I2C.h **** #if defined(__cplusplus)
  22:Generated_Source\PSoC6/I2C.h **** extern "C" {
  23:Generated_Source\PSoC6/I2C.h **** #endif
  24:Generated_Source\PSoC6/I2C.h **** 
  25:Generated_Source\PSoC6/I2C.h **** /***************************************
  26:Generated_Source\PSoC6/I2C.h **** *   Initial Parameter Constants
  27:Generated_Source\PSoC6/I2C.h **** ****************************************/
  28:Generated_Source\PSoC6/I2C.h **** 
  29:Generated_Source\PSoC6/I2C.h **** #define I2C_MODE               (0x2U)
  30:Generated_Source\PSoC6/I2C.h **** #define I2C_MODE_SLAVE_MASK    (0x1U)
  31:Generated_Source\PSoC6/I2C.h **** #define I2C_MODE_MASTER_MASK   (0x2U)
  32:Generated_Source\PSoC6/I2C.h **** 
  33:Generated_Source\PSoC6/I2C.h **** #define I2C_ENABLE_SLAVE       (0UL != (I2C_MODE & I2C_MODE_SLAVE_MASK))
  34:Generated_Source\PSoC6/I2C.h **** #define I2C_ENABLE_MASTER      (0UL != (I2C_MODE & I2C_MODE_MASTER_MASK))
  35:Generated_Source\PSoC6/I2C.h **** #define I2C_MANUAL_SCL_CONTROL (0U)
  36:Generated_Source\PSoC6/I2C.h **** 
  37:Generated_Source\PSoC6/I2C.h **** 
  38:Generated_Source\PSoC6/I2C.h **** /***************************************
  39:Generated_Source\PSoC6/I2C.h **** *        Function Prototypes
  40:Generated_Source\PSoC6/I2C.h **** ***************************************/
  41:Generated_Source\PSoC6/I2C.h **** /**
  42:Generated_Source\PSoC6/I2C.h **** * \addtogroup group_general
ARM GAS  C:\Users\Mathieu\AppData\Local\Temp\ccJNHpye.s 			page 4


  43:Generated_Source\PSoC6/I2C.h **** * @{
  44:Generated_Source\PSoC6/I2C.h **** */
  45:Generated_Source\PSoC6/I2C.h **** /* Component only APIs. */
  46:Generated_Source\PSoC6/I2C.h **** void I2C_Start(void);
  47:Generated_Source\PSoC6/I2C.h **** 
  48:Generated_Source\PSoC6/I2C.h **** /* Basic functions. */
  49:Generated_Source\PSoC6/I2C.h **** __STATIC_INLINE cy_en_scb_i2c_status_t I2C_Init(cy_stc_scb_i2c_config_t const *config);
  50:Generated_Source\PSoC6/I2C.h **** __STATIC_INLINE void I2C_DeInit (void);
  51:Generated_Source\PSoC6/I2C.h **** __STATIC_INLINE void I2C_Enable (void);
  52:Generated_Source\PSoC6/I2C.h **** __STATIC_INLINE void I2C_Disable(void);
  53:Generated_Source\PSoC6/I2C.h **** 
  54:Generated_Source\PSoC6/I2C.h **** /* Data rate configuration functions. */
  55:Generated_Source\PSoC6/I2C.h **** __STATIC_INLINE uint32_t I2C_SetDataRate(uint32_t dataRateHz, uint32_t scbClockHz);
  56:Generated_Source\PSoC6/I2C.h **** __STATIC_INLINE uint32_t I2C_GetDataRate(uint32_t scbClockHz);
  57:Generated_Source\PSoC6/I2C.h **** 
  58:Generated_Source\PSoC6/I2C.h **** /* Register callbacks. */
  59:Generated_Source\PSoC6/I2C.h **** __STATIC_INLINE void I2C_RegisterEventCallback(cy_cb_scb_i2c_handle_events_t callback);
  60:Generated_Source\PSoC6/I2C.h **** #if (I2C_ENABLE_SLAVE)
  61:Generated_Source\PSoC6/I2C.h **** __STATIC_INLINE void I2C_RegisterAddrCallback (cy_cb_scb_i2c_handle_addr_t callback);
  62:Generated_Source\PSoC6/I2C.h **** #endif /* (I2C_ENABLE_SLAVE) */
  63:Generated_Source\PSoC6/I2C.h **** 
  64:Generated_Source\PSoC6/I2C.h **** /* Configuration functions. */
  65:Generated_Source\PSoC6/I2C.h **** #if (I2C_ENABLE_SLAVE)
  66:Generated_Source\PSoC6/I2C.h **** __STATIC_INLINE void     I2C_SlaveSetAddress(uint8_t addr);
  67:Generated_Source\PSoC6/I2C.h **** __STATIC_INLINE uint32_t I2C_SlaveGetAddress(void);
  68:Generated_Source\PSoC6/I2C.h **** __STATIC_INLINE void     I2C_SlaveSetAddressMask(uint8_t addrMask);
  69:Generated_Source\PSoC6/I2C.h **** __STATIC_INLINE uint32_t I2C_SlaveGetAddressMask(void);
  70:Generated_Source\PSoC6/I2C.h **** #endif /* (I2C_ENABLE_SLAVE) */
  71:Generated_Source\PSoC6/I2C.h **** 
  72:Generated_Source\PSoC6/I2C.h **** #if (I2C_ENABLE_MASTER)
  73:Generated_Source\PSoC6/I2C.h **** __STATIC_INLINE void I2C_MasterSetLowPhaseDutyCycle (uint32_t clockCycles);
  74:Generated_Source\PSoC6/I2C.h **** __STATIC_INLINE void I2C_MasterSetHighPhaseDutyCycle(uint32_t clockCycles);
  75:Generated_Source\PSoC6/I2C.h **** #endif /* (I2C_ENABLE_MASTER) */
  76:Generated_Source\PSoC6/I2C.h **** 
  77:Generated_Source\PSoC6/I2C.h **** /* Bus status. */
  78:Generated_Source\PSoC6/I2C.h **** __STATIC_INLINE bool     I2C_IsBusBusy(void);
  79:Generated_Source\PSoC6/I2C.h **** 
  80:Generated_Source\PSoC6/I2C.h **** /* Slave functions. */
  81:Generated_Source\PSoC6/I2C.h **** #if (I2C_ENABLE_SLAVE)
  82:Generated_Source\PSoC6/I2C.h **** __STATIC_INLINE uint32_t I2C_SlaveGetStatus(void);
  83:Generated_Source\PSoC6/I2C.h **** 
  84:Generated_Source\PSoC6/I2C.h **** __STATIC_INLINE void     I2C_SlaveConfigReadBuf(uint8_t *buffer, uint32_t size);
  85:Generated_Source\PSoC6/I2C.h **** __STATIC_INLINE void     I2C_SlaveAbortRead(void);
  86:Generated_Source\PSoC6/I2C.h **** __STATIC_INLINE uint32_t I2C_SlaveGetReadTransferCount(void);
  87:Generated_Source\PSoC6/I2C.h **** __STATIC_INLINE uint32_t I2C_SlaveClearReadStatus(void);
  88:Generated_Source\PSoC6/I2C.h **** 
  89:Generated_Source\PSoC6/I2C.h **** __STATIC_INLINE void     I2C_SlaveConfigWriteBuf(uint8_t *buffer, uint32_t size);
  90:Generated_Source\PSoC6/I2C.h **** __STATIC_INLINE void     I2C_SlaveAbortWrite(void);
  91:Generated_Source\PSoC6/I2C.h **** __STATIC_INLINE uint32_t I2C_SlaveGetWriteTransferCount(void);
  92:Generated_Source\PSoC6/I2C.h **** __STATIC_INLINE uint32_t I2C_SlaveClearWriteStatus(void);
  93:Generated_Source\PSoC6/I2C.h **** #endif /* (I2C_ENABLE_SLAVE) */
  94:Generated_Source\PSoC6/I2C.h **** 
  95:Generated_Source\PSoC6/I2C.h **** /* Master interrupt processing functions. */
  96:Generated_Source\PSoC6/I2C.h **** #if (I2C_ENABLE_MASTER)
  97:Generated_Source\PSoC6/I2C.h **** __STATIC_INLINE uint32_t I2C_MasterGetStatus(void);
  98:Generated_Source\PSoC6/I2C.h **** 
  99:Generated_Source\PSoC6/I2C.h **** __STATIC_INLINE cy_en_scb_i2c_status_t I2C_MasterRead(cy_stc_scb_i2c_master_xfer_config_t *xferConf
ARM GAS  C:\Users\Mathieu\AppData\Local\Temp\ccJNHpye.s 			page 5


 100:Generated_Source\PSoC6/I2C.h **** __STATIC_INLINE void I2C_MasterAbortRead(void);
 101:Generated_Source\PSoC6/I2C.h **** __STATIC_INLINE cy_en_scb_i2c_status_t I2C_MasterWrite(cy_stc_scb_i2c_master_xfer_config_t *xferCon
 102:Generated_Source\PSoC6/I2C.h **** __STATIC_INLINE void I2C_MasterAbortWrite(void);
 103:Generated_Source\PSoC6/I2C.h **** __STATIC_INLINE uint32_t I2C_MasterGetTransferCount(void);
 104:Generated_Source\PSoC6/I2C.h **** 
 105:Generated_Source\PSoC6/I2C.h **** /* Master manual processing functions. */
 106:Generated_Source\PSoC6/I2C.h **** __STATIC_INLINE cy_en_scb_i2c_status_t I2C_MasterSendStart(uint32_t address, cy_en_scb_i2c_directio
 107:Generated_Source\PSoC6/I2C.h **** __STATIC_INLINE cy_en_scb_i2c_status_t I2C_MasterSendReStart(uint32_t address, cy_en_scb_i2c_direct
 108:Generated_Source\PSoC6/I2C.h **** __STATIC_INLINE cy_en_scb_i2c_status_t I2C_MasterSendStop(uint32_t timeoutMs);
 109:Generated_Source\PSoC6/I2C.h **** __STATIC_INLINE cy_en_scb_i2c_status_t I2C_MasterReadByte(cy_en_scb_i2c_command_t ackNack, uint8_t 
 110:Generated_Source\PSoC6/I2C.h **** __STATIC_INLINE cy_en_scb_i2c_status_t I2C_MasterWriteByte(uint8_t byte, uint32_t timeoutMs);
 111:Generated_Source\PSoC6/I2C.h **** #endif /* (I2C_ENABLE_MASTER) */
 112:Generated_Source\PSoC6/I2C.h **** 
 113:Generated_Source\PSoC6/I2C.h **** /* Interrupt handler. */
 114:Generated_Source\PSoC6/I2C.h **** __STATIC_INLINE void I2C_Interrupt(void);
 115:Generated_Source\PSoC6/I2C.h **** /** @} group_general */
 116:Generated_Source\PSoC6/I2C.h **** 
 117:Generated_Source\PSoC6/I2C.h **** 
 118:Generated_Source\PSoC6/I2C.h **** /***************************************
 119:Generated_Source\PSoC6/I2C.h **** *    Variables with External Linkage
 120:Generated_Source\PSoC6/I2C.h **** ***************************************/
 121:Generated_Source\PSoC6/I2C.h **** /**
 122:Generated_Source\PSoC6/I2C.h **** * \addtogroup group_globals
 123:Generated_Source\PSoC6/I2C.h **** * @{
 124:Generated_Source\PSoC6/I2C.h **** */
 125:Generated_Source\PSoC6/I2C.h **** extern uint8_t I2C_initVar;
 126:Generated_Source\PSoC6/I2C.h **** extern cy_stc_scb_i2c_config_t const I2C_config;
 127:Generated_Source\PSoC6/I2C.h **** extern cy_stc_scb_i2c_context_t I2C_context;
 128:Generated_Source\PSoC6/I2C.h **** /** @} group_globals */
 129:Generated_Source\PSoC6/I2C.h **** 
 130:Generated_Source\PSoC6/I2C.h **** 
 131:Generated_Source\PSoC6/I2C.h **** /***************************************
 132:Generated_Source\PSoC6/I2C.h **** *         Preprocessor Macros
 133:Generated_Source\PSoC6/I2C.h **** ***************************************/
 134:Generated_Source\PSoC6/I2C.h **** /**
 135:Generated_Source\PSoC6/I2C.h **** * \addtogroup group_macros
 136:Generated_Source\PSoC6/I2C.h **** * @{
 137:Generated_Source\PSoC6/I2C.h **** */
 138:Generated_Source\PSoC6/I2C.h **** /** The pointer to the base address of the SCB instance */
 139:Generated_Source\PSoC6/I2C.h **** #define I2C_HW     ((CySCB_Type *) I2C_SCB__HW)
 140:Generated_Source\PSoC6/I2C.h **** 
 141:Generated_Source\PSoC6/I2C.h **** /** The desired data rate in Hz */
 142:Generated_Source\PSoC6/I2C.h **** #define I2C_DATA_RATE_HZ      (100000U)
 143:Generated_Source\PSoC6/I2C.h **** 
 144:Generated_Source\PSoC6/I2C.h **** /** The frequency of the clock used by the Component in Hz */
 145:Generated_Source\PSoC6/I2C.h **** #define I2C_CLK_FREQ_HZ       (1562500U)
 146:Generated_Source\PSoC6/I2C.h **** 
 147:Generated_Source\PSoC6/I2C.h **** /** The number of Component clocks used by the master to generate the SCL
 148:Generated_Source\PSoC6/I2C.h **** * low phase. This number is calculated by GUI based on the selected data rate.
 149:Generated_Source\PSoC6/I2C.h **** */
 150:Generated_Source\PSoC6/I2C.h **** #define I2C_LOW_PHASE_DUTY_CYCLE   (8U)
 151:Generated_Source\PSoC6/I2C.h **** 
 152:Generated_Source\PSoC6/I2C.h **** /** The number of Component clocks used by the master to generate the SCL
 153:Generated_Source\PSoC6/I2C.h **** * high phase. This number is calculated by GUI based on the selected data rate.
 154:Generated_Source\PSoC6/I2C.h **** */
 155:Generated_Source\PSoC6/I2C.h **** #define I2C_HIGH_PHASE_DUTY_CYCLE  (8U)
 156:Generated_Source\PSoC6/I2C.h **** /** @} group_macros */
ARM GAS  C:\Users\Mathieu\AppData\Local\Temp\ccJNHpye.s 			page 6


 157:Generated_Source\PSoC6/I2C.h **** 
 158:Generated_Source\PSoC6/I2C.h **** 
 159:Generated_Source\PSoC6/I2C.h **** /***************************************
 160:Generated_Source\PSoC6/I2C.h **** *    In-line Function Implementation
 161:Generated_Source\PSoC6/I2C.h **** ***************************************/
 162:Generated_Source\PSoC6/I2C.h **** 
 163:Generated_Source\PSoC6/I2C.h **** /*******************************************************************************
 164:Generated_Source\PSoC6/I2C.h **** * Function Name: I2C_Init
 165:Generated_Source\PSoC6/I2C.h **** ****************************************************************************//**
 166:Generated_Source\PSoC6/I2C.h **** *
 167:Generated_Source\PSoC6/I2C.h **** * Invokes the Cy_SCB_I2C_Init() PDL driver function.
 168:Generated_Source\PSoC6/I2C.h **** *
 169:Generated_Source\PSoC6/I2C.h **** *******************************************************************************/
 170:Generated_Source\PSoC6/I2C.h **** __STATIC_INLINE cy_en_scb_i2c_status_t I2C_Init(cy_stc_scb_i2c_config_t const *config)
 171:Generated_Source\PSoC6/I2C.h **** {
 172:Generated_Source\PSoC6/I2C.h ****     return Cy_SCB_I2C_Init(I2C_HW, config, &I2C_context);
 173:Generated_Source\PSoC6/I2C.h **** }
 174:Generated_Source\PSoC6/I2C.h **** 
 175:Generated_Source\PSoC6/I2C.h **** 
 176:Generated_Source\PSoC6/I2C.h **** /*******************************************************************************
 177:Generated_Source\PSoC6/I2C.h **** *  Function Name: I2C_DeInit
 178:Generated_Source\PSoC6/I2C.h **** ****************************************************************************//**
 179:Generated_Source\PSoC6/I2C.h **** *
 180:Generated_Source\PSoC6/I2C.h **** * Invokes the Cy_SCB_I2C_DeInit() PDL driver function.
 181:Generated_Source\PSoC6/I2C.h **** *
 182:Generated_Source\PSoC6/I2C.h **** *******************************************************************************/
 183:Generated_Source\PSoC6/I2C.h **** __STATIC_INLINE void I2C_DeInit(void)
 184:Generated_Source\PSoC6/I2C.h **** {
 185:Generated_Source\PSoC6/I2C.h ****     Cy_SCB_I2C_DeInit(I2C_HW);
 186:Generated_Source\PSoC6/I2C.h **** }
 187:Generated_Source\PSoC6/I2C.h **** 
 188:Generated_Source\PSoC6/I2C.h **** 
 189:Generated_Source\PSoC6/I2C.h **** /*******************************************************************************
 190:Generated_Source\PSoC6/I2C.h **** * Function Name: I2C_Enable
 191:Generated_Source\PSoC6/I2C.h **** ****************************************************************************//**
 192:Generated_Source\PSoC6/I2C.h **** *
 193:Generated_Source\PSoC6/I2C.h **** * Invokes the Cy_SCB_I2C_Enable() PDL driver function.
 194:Generated_Source\PSoC6/I2C.h **** *
 195:Generated_Source\PSoC6/I2C.h **** *******************************************************************************/
 196:Generated_Source\PSoC6/I2C.h **** __STATIC_INLINE void I2C_Enable(void)
 197:Generated_Source\PSoC6/I2C.h **** {
 198:Generated_Source\PSoC6/I2C.h ****     Cy_SCB_I2C_Enable(I2C_HW);
 199:Generated_Source\PSoC6/I2C.h **** }
 200:Generated_Source\PSoC6/I2C.h **** 
 201:Generated_Source\PSoC6/I2C.h **** 
 202:Generated_Source\PSoC6/I2C.h **** /*******************************************************************************
 203:Generated_Source\PSoC6/I2C.h **** * Function Name: I2C_Disable
 204:Generated_Source\PSoC6/I2C.h **** ****************************************************************************//**
 205:Generated_Source\PSoC6/I2C.h **** *
 206:Generated_Source\PSoC6/I2C.h **** * Invokes the Cy_SCB_I2C_Disable() PDL driver function.
 207:Generated_Source\PSoC6/I2C.h **** *
 208:Generated_Source\PSoC6/I2C.h **** *******************************************************************************/
 209:Generated_Source\PSoC6/I2C.h **** __STATIC_INLINE void I2C_Disable(void)
 210:Generated_Source\PSoC6/I2C.h **** {
 211:Generated_Source\PSoC6/I2C.h ****     Cy_SCB_I2C_Disable(I2C_HW, &I2C_context);
 212:Generated_Source\PSoC6/I2C.h **** }
 213:Generated_Source\PSoC6/I2C.h **** 
ARM GAS  C:\Users\Mathieu\AppData\Local\Temp\ccJNHpye.s 			page 7


 214:Generated_Source\PSoC6/I2C.h **** 
 215:Generated_Source\PSoC6/I2C.h **** /*******************************************************************************
 216:Generated_Source\PSoC6/I2C.h **** * Function Name: I2C_SetDataRate
 217:Generated_Source\PSoC6/I2C.h **** ****************************************************************************//**
 218:Generated_Source\PSoC6/I2C.h **** *
 219:Generated_Source\PSoC6/I2C.h **** * Invokes the Cy_SCB_I2C_SetDataRate() PDL driver function.
 220:Generated_Source\PSoC6/I2C.h **** *
 221:Generated_Source\PSoC6/I2C.h **** *******************************************************************************/
 222:Generated_Source\PSoC6/I2C.h **** __STATIC_INLINE uint32_t I2C_SetDataRate(uint32_t dataRateHz, uint32_t scbClockHz)
 223:Generated_Source\PSoC6/I2C.h **** {
 224:Generated_Source\PSoC6/I2C.h ****     return Cy_SCB_I2C_SetDataRate(I2C_HW, dataRateHz, scbClockHz);
 225:Generated_Source\PSoC6/I2C.h **** }
 226:Generated_Source\PSoC6/I2C.h **** 
 227:Generated_Source\PSoC6/I2C.h **** 
 228:Generated_Source\PSoC6/I2C.h **** /*******************************************************************************
 229:Generated_Source\PSoC6/I2C.h **** * Function Name: I2C_GetDataRate
 230:Generated_Source\PSoC6/I2C.h **** ****************************************************************************//**
 231:Generated_Source\PSoC6/I2C.h **** *
 232:Generated_Source\PSoC6/I2C.h **** * Invokes the Cy_SCB_I2C_GetDataRate() PDL driver function.
 233:Generated_Source\PSoC6/I2C.h **** *
 234:Generated_Source\PSoC6/I2C.h **** *******************************************************************************/
 235:Generated_Source\PSoC6/I2C.h **** __STATIC_INLINE uint32_t I2C_GetDataRate(uint32_t scbClockHz)
 236:Generated_Source\PSoC6/I2C.h **** {
 237:Generated_Source\PSoC6/I2C.h ****     return Cy_SCB_I2C_GetDataRate(I2C_HW, scbClockHz);
 238:Generated_Source\PSoC6/I2C.h **** }
 239:Generated_Source\PSoC6/I2C.h **** 
 240:Generated_Source\PSoC6/I2C.h **** 
 241:Generated_Source\PSoC6/I2C.h **** /*******************************************************************************
 242:Generated_Source\PSoC6/I2C.h **** * Function Name: I2C_RegisterEventCallback
 243:Generated_Source\PSoC6/I2C.h **** ****************************************************************************//**
 244:Generated_Source\PSoC6/I2C.h **** *
 245:Generated_Source\PSoC6/I2C.h **** * Invokes the Cy_SCB_I2C_RegisterEventCallback() PDL driver function.
 246:Generated_Source\PSoC6/I2C.h **** *
 247:Generated_Source\PSoC6/I2C.h **** *******************************************************************************/
 248:Generated_Source\PSoC6/I2C.h **** __STATIC_INLINE void I2C_RegisterEventCallback(cy_cb_scb_i2c_handle_events_t callback)
 249:Generated_Source\PSoC6/I2C.h **** {
 250:Generated_Source\PSoC6/I2C.h ****     Cy_SCB_I2C_RegisterEventCallback(I2C_HW, callback, &I2C_context);
 251:Generated_Source\PSoC6/I2C.h **** }
 252:Generated_Source\PSoC6/I2C.h **** 
 253:Generated_Source\PSoC6/I2C.h **** 
 254:Generated_Source\PSoC6/I2C.h **** #if (I2C_ENABLE_SLAVE)
 255:Generated_Source\PSoC6/I2C.h **** /*******************************************************************************
 256:Generated_Source\PSoC6/I2C.h **** * Function Name: I2C_RegisterAddrCallback
 257:Generated_Source\PSoC6/I2C.h **** ****************************************************************************//**
 258:Generated_Source\PSoC6/I2C.h **** *
 259:Generated_Source\PSoC6/I2C.h **** * Invokes the Cy_SCB_I2C_RegisterAddrCallback() PDL driver function.
 260:Generated_Source\PSoC6/I2C.h **** *
 261:Generated_Source\PSoC6/I2C.h **** *******************************************************************************/
 262:Generated_Source\PSoC6/I2C.h **** __STATIC_INLINE void I2C_RegisterAddrCallback(cy_cb_scb_i2c_handle_addr_t callback)
 263:Generated_Source\PSoC6/I2C.h **** {
 264:Generated_Source\PSoC6/I2C.h ****     Cy_SCB_I2C_RegisterAddrCallback(I2C_HW, callback, &I2C_context);
 265:Generated_Source\PSoC6/I2C.h **** }
 266:Generated_Source\PSoC6/I2C.h **** #endif /* (I2C_ENABLE_SLAVE) */
 267:Generated_Source\PSoC6/I2C.h **** 
 268:Generated_Source\PSoC6/I2C.h **** 
 269:Generated_Source\PSoC6/I2C.h **** /*******************************************************************************
 270:Generated_Source\PSoC6/I2C.h **** * Function Name: I2C_IsBusBusy
ARM GAS  C:\Users\Mathieu\AppData\Local\Temp\ccJNHpye.s 			page 8


 271:Generated_Source\PSoC6/I2C.h **** ****************************************************************************//**
 272:Generated_Source\PSoC6/I2C.h **** *
 273:Generated_Source\PSoC6/I2C.h **** * Invokes the Cy_SCB_I2C_IsBusBusy() PDL driver function.
 274:Generated_Source\PSoC6/I2C.h **** *
 275:Generated_Source\PSoC6/I2C.h **** *******************************************************************************/
 276:Generated_Source\PSoC6/I2C.h **** __STATIC_INLINE bool I2C_IsBusBusy(void)
 277:Generated_Source\PSoC6/I2C.h **** {
 278:Generated_Source\PSoC6/I2C.h ****     return Cy_SCB_I2C_IsBusBusy(I2C_HW);
 279:Generated_Source\PSoC6/I2C.h **** }
 280:Generated_Source\PSoC6/I2C.h **** 
 281:Generated_Source\PSoC6/I2C.h **** 
 282:Generated_Source\PSoC6/I2C.h **** #if (I2C_ENABLE_SLAVE)
 283:Generated_Source\PSoC6/I2C.h **** /*******************************************************************************
 284:Generated_Source\PSoC6/I2C.h **** * Function Name: I2C_SlaveSetAddress
 285:Generated_Source\PSoC6/I2C.h **** ****************************************************************************//**
 286:Generated_Source\PSoC6/I2C.h **** *
 287:Generated_Source\PSoC6/I2C.h **** * Invokes the Cy_SCB_I2C_SlaveGetAddress() PDL driver function.
 288:Generated_Source\PSoC6/I2C.h **** *
 289:Generated_Source\PSoC6/I2C.h **** *******************************************************************************/
 290:Generated_Source\PSoC6/I2C.h **** __STATIC_INLINE void I2C_SlaveSetAddress(uint8_t addr)
 291:Generated_Source\PSoC6/I2C.h **** {
 292:Generated_Source\PSoC6/I2C.h ****     Cy_SCB_I2C_SlaveSetAddress(I2C_HW, addr);
 293:Generated_Source\PSoC6/I2C.h **** }
 294:Generated_Source\PSoC6/I2C.h **** 
 295:Generated_Source\PSoC6/I2C.h **** 
 296:Generated_Source\PSoC6/I2C.h **** /*******************************************************************************
 297:Generated_Source\PSoC6/I2C.h **** * Function Name: I2C_SlaveGetAddress
 298:Generated_Source\PSoC6/I2C.h **** ****************************************************************************//**
 299:Generated_Source\PSoC6/I2C.h **** *
 300:Generated_Source\PSoC6/I2C.h **** * Invokes the Cy_SCB_I2C_SlaveGetAddress() PDL driver function.
 301:Generated_Source\PSoC6/I2C.h **** *
 302:Generated_Source\PSoC6/I2C.h **** *******************************************************************************/
 303:Generated_Source\PSoC6/I2C.h **** __STATIC_INLINE uint32_t I2C_SlaveGetAddress(void)
 304:Generated_Source\PSoC6/I2C.h **** {
 305:Generated_Source\PSoC6/I2C.h ****     return Cy_SCB_I2C_SlaveGetAddress(I2C_HW);
 306:Generated_Source\PSoC6/I2C.h **** }
 307:Generated_Source\PSoC6/I2C.h **** 
 308:Generated_Source\PSoC6/I2C.h **** 
 309:Generated_Source\PSoC6/I2C.h **** /*******************************************************************************
 310:Generated_Source\PSoC6/I2C.h **** * Function Name: I2C_SlaveSetAddressMask
 311:Generated_Source\PSoC6/I2C.h **** ****************************************************************************//**
 312:Generated_Source\PSoC6/I2C.h **** *
 313:Generated_Source\PSoC6/I2C.h **** * Invokes the Cy_SCB_I2C_SlaveSetAddressMask() PDL driver function.
 314:Generated_Source\PSoC6/I2C.h **** *
 315:Generated_Source\PSoC6/I2C.h **** *******************************************************************************/
 316:Generated_Source\PSoC6/I2C.h **** __STATIC_INLINE void I2C_SlaveSetAddressMask(uint8_t addrMask)
 317:Generated_Source\PSoC6/I2C.h **** {
 318:Generated_Source\PSoC6/I2C.h ****     Cy_SCB_I2C_SlaveSetAddressMask(I2C_HW, addrMask);
 319:Generated_Source\PSoC6/I2C.h **** }
 320:Generated_Source\PSoC6/I2C.h **** 
 321:Generated_Source\PSoC6/I2C.h **** 
 322:Generated_Source\PSoC6/I2C.h **** /*******************************************************************************
 323:Generated_Source\PSoC6/I2C.h **** * Function Name: I2C_SlaveGetAddressMask
 324:Generated_Source\PSoC6/I2C.h **** ****************************************************************************//**
 325:Generated_Source\PSoC6/I2C.h **** *
 326:Generated_Source\PSoC6/I2C.h **** * Invokes the Cy_SCB_I2C_SlaveGetAddressMask() PDL driver function.
 327:Generated_Source\PSoC6/I2C.h **** *
ARM GAS  C:\Users\Mathieu\AppData\Local\Temp\ccJNHpye.s 			page 9


 328:Generated_Source\PSoC6/I2C.h **** *******************************************************************************/
 329:Generated_Source\PSoC6/I2C.h **** __STATIC_INLINE uint32_t I2C_SlaveGetAddressMask(void)
 330:Generated_Source\PSoC6/I2C.h **** {
 331:Generated_Source\PSoC6/I2C.h ****     return Cy_SCB_I2C_SlaveGetAddressMask(I2C_HW);
 332:Generated_Source\PSoC6/I2C.h **** }
 333:Generated_Source\PSoC6/I2C.h **** #endif /* (I2C_ENABLE_SLAVE) */
 334:Generated_Source\PSoC6/I2C.h **** 
 335:Generated_Source\PSoC6/I2C.h **** #if (I2C_ENABLE_MASTER)
 336:Generated_Source\PSoC6/I2C.h **** /*******************************************************************************
 337:Generated_Source\PSoC6/I2C.h **** * Function Name: I2C_MasterSetLowPhaseDutyCycle
 338:Generated_Source\PSoC6/I2C.h **** ****************************************************************************//**
 339:Generated_Source\PSoC6/I2C.h **** *
 340:Generated_Source\PSoC6/I2C.h **** * Invokes the Cy_SCB_I2C_MasterSetLowPhaseDutyCycle() PDL driver function.
 341:Generated_Source\PSoC6/I2C.h **** *
 342:Generated_Source\PSoC6/I2C.h **** *******************************************************************************/
 343:Generated_Source\PSoC6/I2C.h **** __STATIC_INLINE void I2C_MasterSetLowPhaseDutyCycle(uint32_t clockCycles)
 344:Generated_Source\PSoC6/I2C.h **** {
 345:Generated_Source\PSoC6/I2C.h ****     Cy_SCB_I2C_MasterSetLowPhaseDutyCycle(I2C_HW, clockCycles);
 346:Generated_Source\PSoC6/I2C.h **** }
 347:Generated_Source\PSoC6/I2C.h **** 
 348:Generated_Source\PSoC6/I2C.h **** 
 349:Generated_Source\PSoC6/I2C.h **** /*******************************************************************************
 350:Generated_Source\PSoC6/I2C.h **** * Function Name: I2C_MasterSetHighPhaseDutyCycle
 351:Generated_Source\PSoC6/I2C.h **** ****************************************************************************//**
 352:Generated_Source\PSoC6/I2C.h **** *
 353:Generated_Source\PSoC6/I2C.h **** * Invokes the Cy_SCB_I2C_MasterSetHighPhaseDutyCycle() PDL driver function.
 354:Generated_Source\PSoC6/I2C.h **** *
 355:Generated_Source\PSoC6/I2C.h **** *******************************************************************************/
 356:Generated_Source\PSoC6/I2C.h **** __STATIC_INLINE void I2C_MasterSetHighPhaseDutyCycle(uint32_t clockCycles)
 357:Generated_Source\PSoC6/I2C.h **** {
 358:Generated_Source\PSoC6/I2C.h ****     Cy_SCB_I2C_MasterSetHighPhaseDutyCycle(I2C_HW, clockCycles);
 359:Generated_Source\PSoC6/I2C.h **** }
 360:Generated_Source\PSoC6/I2C.h **** #endif /* (I2C_ENABLE_MASTER) */
 361:Generated_Source\PSoC6/I2C.h **** 
 362:Generated_Source\PSoC6/I2C.h **** 
 363:Generated_Source\PSoC6/I2C.h **** #if (I2C_ENABLE_SLAVE)
 364:Generated_Source\PSoC6/I2C.h **** /*******************************************************************************
 365:Generated_Source\PSoC6/I2C.h **** * Function Name: I2C_SlaveGetStatus
 366:Generated_Source\PSoC6/I2C.h **** ****************************************************************************//**
 367:Generated_Source\PSoC6/I2C.h **** *
 368:Generated_Source\PSoC6/I2C.h **** * Invokes the Cy_SCB_I2C_SlaveGetStatus() PDL driver function.
 369:Generated_Source\PSoC6/I2C.h **** *
 370:Generated_Source\PSoC6/I2C.h **** *******************************************************************************/
 371:Generated_Source\PSoC6/I2C.h **** __STATIC_INLINE uint32_t I2C_SlaveGetStatus(void)
 372:Generated_Source\PSoC6/I2C.h **** {
 373:Generated_Source\PSoC6/I2C.h ****     return Cy_SCB_I2C_SlaveGetStatus(I2C_HW, &I2C_context);
 374:Generated_Source\PSoC6/I2C.h **** }
 375:Generated_Source\PSoC6/I2C.h **** 
 376:Generated_Source\PSoC6/I2C.h **** 
 377:Generated_Source\PSoC6/I2C.h **** /*******************************************************************************
 378:Generated_Source\PSoC6/I2C.h **** * Function Name: I2C_SlaveConfigReadBuf
 379:Generated_Source\PSoC6/I2C.h **** ****************************************************************************//**
 380:Generated_Source\PSoC6/I2C.h **** *
 381:Generated_Source\PSoC6/I2C.h **** * Invokes the Cy_SCB_I2C_SlaveConfigReadBuf() PDL driver function.
 382:Generated_Source\PSoC6/I2C.h **** *
 383:Generated_Source\PSoC6/I2C.h **** *******************************************************************************/
 384:Generated_Source\PSoC6/I2C.h **** __STATIC_INLINE void I2C_SlaveConfigReadBuf(uint8_t *buffer, uint32_t size)
ARM GAS  C:\Users\Mathieu\AppData\Local\Temp\ccJNHpye.s 			page 10


 385:Generated_Source\PSoC6/I2C.h **** {
 386:Generated_Source\PSoC6/I2C.h ****     Cy_SCB_I2C_SlaveConfigReadBuf(I2C_HW, buffer, size, &I2C_context);
 387:Generated_Source\PSoC6/I2C.h **** }
 388:Generated_Source\PSoC6/I2C.h **** 
 389:Generated_Source\PSoC6/I2C.h **** 
 390:Generated_Source\PSoC6/I2C.h **** /*******************************************************************************
 391:Generated_Source\PSoC6/I2C.h **** * Function Name: I2C_SlaveAbortRead
 392:Generated_Source\PSoC6/I2C.h **** ****************************************************************************//**
 393:Generated_Source\PSoC6/I2C.h **** *
 394:Generated_Source\PSoC6/I2C.h **** * Invokes the Cy_SCB_I2C_SlaveAbortRead() PDL driver function.
 395:Generated_Source\PSoC6/I2C.h **** *
 396:Generated_Source\PSoC6/I2C.h **** *******************************************************************************/
 397:Generated_Source\PSoC6/I2C.h **** __STATIC_INLINE void I2C_SlaveAbortRead(void)
 398:Generated_Source\PSoC6/I2C.h **** {
 399:Generated_Source\PSoC6/I2C.h ****     Cy_SCB_I2C_SlaveAbortRead(I2C_HW, &I2C_context);
 400:Generated_Source\PSoC6/I2C.h **** }
 401:Generated_Source\PSoC6/I2C.h **** 
 402:Generated_Source\PSoC6/I2C.h **** 
 403:Generated_Source\PSoC6/I2C.h **** /*******************************************************************************
 404:Generated_Source\PSoC6/I2C.h **** * Function Name: I2C_SlaveGetReadTransferCount
 405:Generated_Source\PSoC6/I2C.h **** ****************************************************************************//**
 406:Generated_Source\PSoC6/I2C.h **** *
 407:Generated_Source\PSoC6/I2C.h **** * Invokes the Cy_SCB_I2C_SlaveGetReadTransferCount() PDL driver function.
 408:Generated_Source\PSoC6/I2C.h **** *
 409:Generated_Source\PSoC6/I2C.h **** *******************************************************************************/
 410:Generated_Source\PSoC6/I2C.h **** __STATIC_INLINE uint32_t I2C_SlaveGetReadTransferCount(void)
 411:Generated_Source\PSoC6/I2C.h **** {
 412:Generated_Source\PSoC6/I2C.h ****     return Cy_SCB_I2C_SlaveGetReadTransferCount(I2C_HW, &I2C_context);
 413:Generated_Source\PSoC6/I2C.h **** }
 414:Generated_Source\PSoC6/I2C.h **** 
 415:Generated_Source\PSoC6/I2C.h **** 
 416:Generated_Source\PSoC6/I2C.h **** /*******************************************************************************
 417:Generated_Source\PSoC6/I2C.h **** * Function Name: I2C_SlaveClearReadStatus
 418:Generated_Source\PSoC6/I2C.h **** ****************************************************************************//**
 419:Generated_Source\PSoC6/I2C.h **** *
 420:Generated_Source\PSoC6/I2C.h **** * Invokes the Cy_SCB_I2C_SlaveClearReadStatus() PDL driver function.
 421:Generated_Source\PSoC6/I2C.h **** *
 422:Generated_Source\PSoC6/I2C.h **** *******************************************************************************/
 423:Generated_Source\PSoC6/I2C.h **** __STATIC_INLINE uint32_t I2C_SlaveClearReadStatus(void)
 424:Generated_Source\PSoC6/I2C.h **** {
 425:Generated_Source\PSoC6/I2C.h ****     return Cy_SCB_I2C_SlaveClearReadStatus(I2C_HW, &I2C_context);
 426:Generated_Source\PSoC6/I2C.h **** }
 427:Generated_Source\PSoC6/I2C.h **** 
 428:Generated_Source\PSoC6/I2C.h **** 
 429:Generated_Source\PSoC6/I2C.h **** /*******************************************************************************
 430:Generated_Source\PSoC6/I2C.h **** * Function Name: I2C_SlaveConfigWriteBuf
 431:Generated_Source\PSoC6/I2C.h **** ****************************************************************************//**
 432:Generated_Source\PSoC6/I2C.h **** *
 433:Generated_Source\PSoC6/I2C.h **** * Invokes the Cy_SCB_I2C_SlaveConfigWriteBuf() PDL driver function.
 434:Generated_Source\PSoC6/I2C.h **** *
 435:Generated_Source\PSoC6/I2C.h **** *******************************************************************************/
 436:Generated_Source\PSoC6/I2C.h **** __STATIC_INLINE void I2C_SlaveConfigWriteBuf(uint8_t *buffer, uint32_t size)
 437:Generated_Source\PSoC6/I2C.h **** {
 438:Generated_Source\PSoC6/I2C.h ****     Cy_SCB_I2C_SlaveConfigWriteBuf(I2C_HW, buffer, size, &I2C_context);
 439:Generated_Source\PSoC6/I2C.h **** }
 440:Generated_Source\PSoC6/I2C.h **** 
 441:Generated_Source\PSoC6/I2C.h **** 
ARM GAS  C:\Users\Mathieu\AppData\Local\Temp\ccJNHpye.s 			page 11


 442:Generated_Source\PSoC6/I2C.h **** /*******************************************************************************
 443:Generated_Source\PSoC6/I2C.h **** * Function Name: I2C_SlaveAbortWrite
 444:Generated_Source\PSoC6/I2C.h **** ****************************************************************************//**
 445:Generated_Source\PSoC6/I2C.h **** *
 446:Generated_Source\PSoC6/I2C.h **** * Invokes the Cy_SCB_I2C_SlaveAbortWrite() PDL driver function.
 447:Generated_Source\PSoC6/I2C.h **** *
 448:Generated_Source\PSoC6/I2C.h **** *******************************************************************************/
 449:Generated_Source\PSoC6/I2C.h **** __STATIC_INLINE void I2C_SlaveAbortWrite(void)
 450:Generated_Source\PSoC6/I2C.h **** {
 451:Generated_Source\PSoC6/I2C.h ****     Cy_SCB_I2C_SlaveAbortWrite(I2C_HW, &I2C_context);
 452:Generated_Source\PSoC6/I2C.h **** }
 453:Generated_Source\PSoC6/I2C.h **** 
 454:Generated_Source\PSoC6/I2C.h **** 
 455:Generated_Source\PSoC6/I2C.h **** /*******************************************************************************
 456:Generated_Source\PSoC6/I2C.h **** * Function Name: I2C_SlaveGetWriteTransferCount
 457:Generated_Source\PSoC6/I2C.h **** ****************************************************************************//**
 458:Generated_Source\PSoC6/I2C.h **** *
 459:Generated_Source\PSoC6/I2C.h **** * Invokes the Cy_SCB_I2C_SlaveGetWriteTransferCount() PDL driver function.
 460:Generated_Source\PSoC6/I2C.h **** *
 461:Generated_Source\PSoC6/I2C.h **** *******************************************************************************/
 462:Generated_Source\PSoC6/I2C.h **** __STATIC_INLINE uint32_t I2C_SlaveGetWriteTransferCount(void)
 463:Generated_Source\PSoC6/I2C.h **** {
 464:Generated_Source\PSoC6/I2C.h ****     return Cy_SCB_I2C_SlaveGetWriteTransferCount(I2C_HW, &I2C_context);
 465:Generated_Source\PSoC6/I2C.h **** }
 466:Generated_Source\PSoC6/I2C.h **** 
 467:Generated_Source\PSoC6/I2C.h **** 
 468:Generated_Source\PSoC6/I2C.h **** /*******************************************************************************
 469:Generated_Source\PSoC6/I2C.h **** * Function Name: I2C_SlaveClearWriteStatus
 470:Generated_Source\PSoC6/I2C.h **** ****************************************************************************//**
 471:Generated_Source\PSoC6/I2C.h **** *
 472:Generated_Source\PSoC6/I2C.h **** * Invokes the Cy_SCB_I2C_SlaveClearWriteStatus() PDL driver function.
 473:Generated_Source\PSoC6/I2C.h **** *
 474:Generated_Source\PSoC6/I2C.h **** *******************************************************************************/
 475:Generated_Source\PSoC6/I2C.h **** __STATIC_INLINE uint32_t I2C_SlaveClearWriteStatus(void)
 476:Generated_Source\PSoC6/I2C.h **** {
 477:Generated_Source\PSoC6/I2C.h ****     return Cy_SCB_I2C_SlaveClearWriteStatus(I2C_HW, &I2C_context);
 478:Generated_Source\PSoC6/I2C.h **** }
 479:Generated_Source\PSoC6/I2C.h **** #endif /* (I2C_ENABLE_SLAVE) */
 480:Generated_Source\PSoC6/I2C.h **** 
 481:Generated_Source\PSoC6/I2C.h **** 
 482:Generated_Source\PSoC6/I2C.h **** #if (I2C_ENABLE_MASTER)
 483:Generated_Source\PSoC6/I2C.h **** /*******************************************************************************
 484:Generated_Source\PSoC6/I2C.h **** * Function Name: I2C_MasterGetStatus
 485:Generated_Source\PSoC6/I2C.h **** ****************************************************************************//**
 486:Generated_Source\PSoC6/I2C.h **** *
 487:Generated_Source\PSoC6/I2C.h **** * Invokes the Cy_SCB_I2C_MasterGetStatus() PDL driver function.
 488:Generated_Source\PSoC6/I2C.h **** *
 489:Generated_Source\PSoC6/I2C.h **** *******************************************************************************/
 490:Generated_Source\PSoC6/I2C.h **** __STATIC_INLINE uint32_t I2C_MasterGetStatus(void)
 491:Generated_Source\PSoC6/I2C.h **** {
 492:Generated_Source\PSoC6/I2C.h ****     return Cy_SCB_I2C_MasterGetStatus(I2C_HW, &I2C_context);
 493:Generated_Source\PSoC6/I2C.h **** }
 494:Generated_Source\PSoC6/I2C.h **** 
 495:Generated_Source\PSoC6/I2C.h **** 
 496:Generated_Source\PSoC6/I2C.h **** /*******************************************************************************
 497:Generated_Source\PSoC6/I2C.h **** * Function Name: I2C_MasterRead
 498:Generated_Source\PSoC6/I2C.h **** ****************************************************************************//**
ARM GAS  C:\Users\Mathieu\AppData\Local\Temp\ccJNHpye.s 			page 12


 499:Generated_Source\PSoC6/I2C.h **** *
 500:Generated_Source\PSoC6/I2C.h **** * Invokes the Cy_SCB_I2C_MasterRead() PDL driver function.
 501:Generated_Source\PSoC6/I2C.h **** *
 502:Generated_Source\PSoC6/I2C.h **** *******************************************************************************/
 503:Generated_Source\PSoC6/I2C.h **** __STATIC_INLINE cy_en_scb_i2c_status_t I2C_MasterRead(cy_stc_scb_i2c_master_xfer_config_t *xferConf
 504:Generated_Source\PSoC6/I2C.h **** {
 505:Generated_Source\PSoC6/I2C.h ****     return Cy_SCB_I2C_MasterRead(I2C_HW, xferConfig, &I2C_context);
 506:Generated_Source\PSoC6/I2C.h **** }
 507:Generated_Source\PSoC6/I2C.h **** 
 508:Generated_Source\PSoC6/I2C.h **** 
 509:Generated_Source\PSoC6/I2C.h **** /*******************************************************************************
 510:Generated_Source\PSoC6/I2C.h **** * Function Name: I2C_MasterAbortRead
 511:Generated_Source\PSoC6/I2C.h **** ****************************************************************************//**
 512:Generated_Source\PSoC6/I2C.h **** *
 513:Generated_Source\PSoC6/I2C.h **** * Invokes the Cy_SCB_I2C_MasterAbortRead() PDL driver function.
 514:Generated_Source\PSoC6/I2C.h **** *
 515:Generated_Source\PSoC6/I2C.h **** ******************************************************************************/
 516:Generated_Source\PSoC6/I2C.h **** __STATIC_INLINE void I2C_MasterAbortRead(void)
 517:Generated_Source\PSoC6/I2C.h **** {
 518:Generated_Source\PSoC6/I2C.h ****     Cy_SCB_I2C_MasterAbortRead(I2C_HW, &I2C_context);
 519:Generated_Source\PSoC6/I2C.h **** }
 520:Generated_Source\PSoC6/I2C.h **** 
 521:Generated_Source\PSoC6/I2C.h **** 
 522:Generated_Source\PSoC6/I2C.h **** /*******************************************************************************
 523:Generated_Source\PSoC6/I2C.h **** * Function Name: I2C_MasterWrite
 524:Generated_Source\PSoC6/I2C.h **** ****************************************************************************//**
 525:Generated_Source\PSoC6/I2C.h **** *
 526:Generated_Source\PSoC6/I2C.h **** * Invokes the Cy_SCB_I2C_MasterWrite() PDL driver function.
 527:Generated_Source\PSoC6/I2C.h **** *
 528:Generated_Source\PSoC6/I2C.h **** *******************************************************************************/
 529:Generated_Source\PSoC6/I2C.h **** __STATIC_INLINE cy_en_scb_i2c_status_t I2C_MasterWrite(cy_stc_scb_i2c_master_xfer_config_t *xferCon
 530:Generated_Source\PSoC6/I2C.h **** {
 531:Generated_Source\PSoC6/I2C.h ****     return Cy_SCB_I2C_MasterWrite(I2C_HW, xferConfig, &I2C_context);
  71              		.loc 2 531 0
  72 002a 084A     		ldr	r2, .L3+4
  73 002c 6946     		mov	r1, sp
  74 002e 0848     		ldr	r0, .L3+8
  75 0030 FFF7FEFF 		bl	Cy_SCB_I2C_MasterWrite
  76              	.LVL6:
  77 0034 0446     		mov	r4, r0
  78              	.LVL7:
  79              	.LBE17:
  80              	.LBE16:
  59:main_cm4.c    **** 			.xferPending = false
  60:main_cm4.c    **** 		};
  61:main_cm4.c    **** 		
  62:main_cm4.c    **** 		/* Start I2C write and take the semaphore */
  63:main_cm4.c    **** 		status = (unsigned int)I2C_MasterWrite(&config);
  64:main_cm4.c    **** 		xSemaphoreTake(xSemaphoreI2C, portMAX_DELAY);
  81              		.loc 1 64 0
  82 0036 4FF0FF31 		mov	r1, #-1
  83 003a 064B     		ldr	r3, .L3+12
  84 003c 1868     		ldr	r0, [r3]
  85 003e FFF7FEFF 		bl	xQueueSemaphoreTake
  86              	.LVL8:
  65:main_cm4.c    **** 			
  66:main_cm4.c    **** 		return status;
ARM GAS  C:\Users\Mathieu\AppData\Local\Temp\ccJNHpye.s 			page 13


  67:main_cm4.c    **** 	}
  87              		.loc 1 67 0
  88 0042 2046     		mov	r0, r4
  89 0044 05B0     		add	sp, sp, #20
  90              		.cfi_def_cfa_offset 20
  91              		@ sp needed
  92 0046 F0BD     		pop	{r4, r5, r6, r7, pc}
  93              	.LVL9:
  94              	.L4:
  95              		.align	2
  96              	.L3:
  97 0048 00000000 		.word	.LANCHOR0
  98 004c 00000000 		.word	I2C_context
  99 0050 00006440 		.word	1080295424
 100 0054 00000000 		.word	xSemaphoreI2C
 101              		.cfi_endproc
 102              	.LFE513:
 103              		.size	I2C_WriteBytes, .-I2C_WriteBytes
 104              		.section	.text.I2C_ReadBytes,"ax",%progbits
 105              		.align	2
 106              		.global	I2C_ReadBytes
 107              		.thumb
 108              		.thumb_func
 109              		.type	I2C_ReadBytes, %function
 110              	I2C_ReadBytes:
 111              	.LFB514:
  68:main_cm4.c    **** 
  69:main_cm4.c    **** 	//Fonction de lecture I2C
  70:main_cm4.c    **** 	unsigned int I2C_ReadBytes(uint8_t Address, uint8_t RegisterAddr, uint8_t *RegisterValue, uint8_t 
  71:main_cm4.c    **** 	{
 112              		.loc 1 71 0
 113              		.cfi_startproc
 114              		@ args = 0, pretend = 0, frame = 24
 115              		@ frame_needed = 0, uses_anonymous_args = 0
 116              	.LVL10:
 117 0000 F0B5     		push	{r4, r5, r6, r7, lr}
 118              		.cfi_def_cfa_offset 20
 119              		.cfi_offset 4, -20
 120              		.cfi_offset 5, -16
 121              		.cfi_offset 6, -12
 122              		.cfi_offset 7, -8
 123              		.cfi_offset 14, -4
 124 0002 87B0     		sub	sp, sp, #28
 125              		.cfi_def_cfa_offset 48
 126 0004 0546     		mov	r5, r0
 127 0006 1746     		mov	r7, r2
 128 0008 1E46     		mov	r6, r3
 129 000a 8DF80710 		strb	r1, [sp, #7]
  72:main_cm4.c    **** 		/* Variable used for status of I2C operation */
  73:main_cm4.c    **** 		static unsigned int status;
  74:main_cm4.c    **** 		
  75:main_cm4.c    **** 		/* Local variables for storing I2C Master transfer configuration structure */
  76:main_cm4.c    **** 		cy_stc_scb_i2c_master_xfer_config_t config;
  77:main_cm4.c    **** 		
  78:main_cm4.c    **** 		config.slaveAddress = (uint32)Address;
 130              		.loc 1 78 0
 131 000e 8DF80800 		strb	r0, [sp, #8]
ARM GAS  C:\Users\Mathieu\AppData\Local\Temp\ccJNHpye.s 			page 14


  79:main_cm4.c    **** 		config.buffer       = &RegisterAddr;
 132              		.loc 1 79 0
 133 0012 0DF10703 		add	r3, sp, #7
 134              	.LVL11:
 135 0016 0393     		str	r3, [sp, #12]
  80:main_cm4.c    **** 		config.bufferSize   = 1;
 136              		.loc 1 80 0
 137 0018 0123     		movs	r3, #1
 138 001a 0493     		str	r3, [sp, #16]
  81:main_cm4.c    **** 		config.xferPending  = true;
 139              		.loc 1 81 0
 140 001c 8DF81430 		strb	r3, [sp, #20]
 141              	.LVL12:
 142              	.LBB18:
 143              	.LBB19:
 144              		.loc 2 531 0
 145 0020 124A     		ldr	r2, .L8
 146              	.LVL13:
 147 0022 02A9     		add	r1, sp, #8
 148              	.LVL14:
 149 0024 1248     		ldr	r0, .L8+4
 150              	.LVL15:
 151 0026 FFF7FEFF 		bl	Cy_SCB_I2C_MasterWrite
 152              	.LVL16:
 153              	.LBE19:
 154              	.LBE18:
  82:main_cm4.c    **** 		
  83:main_cm4.c    **** 		/* Start I2C write and take the semaphore */
  84:main_cm4.c    **** 		status = (unsigned int)I2C_MasterWrite(&config);
 155              		.loc 1 84 0
 156 002a 124C     		ldr	r4, .L8+8
 157 002c E060     		str	r0, [r4, #12]
  85:main_cm4.c    **** 		xSemaphoreTake(xSemaphoreI2C, portMAX_DELAY);
 158              		.loc 1 85 0
 159 002e 4FF0FF31 		mov	r1, #-1
 160 0032 114B     		ldr	r3, .L8+12
 161 0034 1868     		ldr	r0, [r3]
 162 0036 FFF7FEFF 		bl	xQueueSemaphoreTake
 163              	.LVL17:
  86:main_cm4.c    **** 		
  87:main_cm4.c    **** 		if(status == CY_SCB_I2C_SUCCESS)
 164              		.loc 1 87 0
 165 003a E368     		ldr	r3, [r4, #12]
 166 003c 8BB9     		cbnz	r3, .L6
  88:main_cm4.c    **** 		{
  89:main_cm4.c    **** 			config.slaveAddress = (uint32)Address;
 167              		.loc 1 89 0
 168 003e 8DF80850 		strb	r5, [sp, #8]
  90:main_cm4.c    **** 			config.buffer =  RegisterValue;
 169              		.loc 1 90 0
 170 0042 0397     		str	r7, [sp, #12]
  91:main_cm4.c    **** 			config.bufferSize = RegisterLen;
 171              		.loc 1 91 0
 172 0044 0496     		str	r6, [sp, #16]
  92:main_cm4.c    **** 			config.xferPending = false;
 173              		.loc 1 92 0
 174 0046 8DF81430 		strb	r3, [sp, #20]
ARM GAS  C:\Users\Mathieu\AppData\Local\Temp\ccJNHpye.s 			page 15


 175              	.LVL18:
 176              	.LBB20:
 177              	.LBB21:
 505:Generated_Source\PSoC6/I2C.h **** }
 178              		.loc 2 505 0
 179 004a 084A     		ldr	r2, .L8
 180 004c 02A9     		add	r1, sp, #8
 181              	.LVL19:
 182 004e 0848     		ldr	r0, .L8+4
 183 0050 FFF7FEFF 		bl	Cy_SCB_I2C_MasterRead
 184              	.LVL20:
 185              	.LBE21:
 186              	.LBE20:
  93:main_cm4.c    **** 			
  94:main_cm4.c    **** 			/* Start I2C read and take the semaphore */
  95:main_cm4.c    **** 			status = (unsigned int)I2C_MasterRead(&config);
 187              		.loc 1 95 0
 188 0054 E060     		str	r0, [r4, #12]
  96:main_cm4.c    **** 			xSemaphoreTake(xSemaphoreI2C, portMAX_DELAY);
 189              		.loc 1 96 0
 190 0056 4FF0FF31 		mov	r1, #-1
 191 005a 074B     		ldr	r3, .L8+12
 192 005c 1868     		ldr	r0, [r3]
 193 005e FFF7FEFF 		bl	xQueueSemaphoreTake
 194              	.LVL21:
 195              	.L6:
  97:main_cm4.c    **** 		}
  98:main_cm4.c    **** 		return status;
  99:main_cm4.c    **** 	}
 196              		.loc 1 99 0
 197 0062 044B     		ldr	r3, .L8+8
 198 0064 D868     		ldr	r0, [r3, #12]
 199 0066 07B0     		add	sp, sp, #28
 200              		.cfi_def_cfa_offset 20
 201              		@ sp needed
 202 0068 F0BD     		pop	{r4, r5, r6, r7, pc}
 203              	.LVL22:
 204              	.L9:
 205 006a 00BF     		.align	2
 206              	.L8:
 207 006c 00000000 		.word	I2C_context
 208 0070 00006440 		.word	1080295424
 209 0074 00000000 		.word	.LANCHOR0
 210 0078 00000000 		.word	xSemaphoreI2C
 211              		.cfi_endproc
 212              	.LFE514:
 213              		.size	I2C_ReadBytes, .-I2C_ReadBytes
 214              		.section	.text.I2C_Callback,"ax",%progbits
 215              		.align	2
 216              		.global	I2C_Callback
 217              		.thumb
 218              		.thumb_func
 219              		.type	I2C_Callback, %function
 220              	I2C_Callback:
 221              	.LFB515:
 100:main_cm4.c    **** 
 101:main_cm4.c    **** 	//Fonction qui assure le bon déroulement de la fin d'une écriture ou lecture I2C
ARM GAS  C:\Users\Mathieu\AppData\Local\Temp\ccJNHpye.s 			page 16


 102:main_cm4.c    **** 	void I2C_Callback(uint32_t events)
 103:main_cm4.c    **** 	{
 222              		.loc 1 103 0
 223              		.cfi_startproc
 224              		@ args = 0, pretend = 0, frame = 8
 225              		@ frame_needed = 0, uses_anonymous_args = 0
 226              	.LVL23:
 227 0000 00B5     		push	{lr}
 228              		.cfi_def_cfa_offset 4
 229              		.cfi_offset 14, -4
 230 0002 83B0     		sub	sp, sp, #12
 231              		.cfi_def_cfa_offset 16
 104:main_cm4.c    **** 		BaseType_t xHigherPriorityTaskWoken;
 105:main_cm4.c    **** 		/**
 106:main_cm4.c    **** 		 * Unblock the task by releasing the semaphore only if no hardware error is 
 107:main_cm4.c    **** 		 * detected and I2C master read or write is completed
 108:main_cm4.c    **** 		 */
 109:main_cm4.c    **** 		if(events & CY_SCB_I2C_MASTER_ERR_EVENT)
 232              		.loc 1 109 0
 233 0004 10F4002F 		tst	r0, #524288
 234 0008 07D0     		beq	.L11
 110:main_cm4.c    **** 		{
 111:main_cm4.c    **** 			printf("Failure!  : I2C hardware error detected\r\n");
 235              		.loc 1 111 0
 236 000a 0E48     		ldr	r0, .L14
 237              	.LVL24:
 238 000c FFF7FEFF 		bl	puts
 239              	.LVL25:
 112:main_cm4.c    **** 			CY_ASSERT(0u); /* Halt CPU */
 240              		.loc 1 112 0
 241 0010 7021     		movs	r1, #112
 242 0012 0D48     		ldr	r0, .L14+4
 243 0014 FFF7FEFF 		bl	Cy_SysLib_AssertFailed
 244              	.LVL26:
 245 0018 11E0     		b	.L10
 246              	.LVL27:
 247              	.L11:
 113:main_cm4.c    **** 		}
 114:main_cm4.c    **** 		else if((events & CY_SCB_I2C_MASTER_WR_CMPLT_EVENT)|| 
 248              		.loc 1 114 0
 249 001a 10F4C02F 		tst	r0, #393216
 250 001e 0ED0     		beq	.L10
 115:main_cm4.c    **** 				(events & CY_SCB_I2C_MASTER_RD_CMPLT_EVENT))
 116:main_cm4.c    **** 		{
 117:main_cm4.c    **** 			xSemaphoreGiveFromISR(xSemaphoreI2C, &xHigherPriorityTaskWoken);
 251              		.loc 1 117 0
 252 0020 01A9     		add	r1, sp, #4
 253 0022 0A4B     		ldr	r3, .L14+8
 254 0024 1868     		ldr	r0, [r3]
 255              	.LVL28:
 256 0026 FFF7FEFF 		bl	xQueueGiveFromISR
 257              	.LVL29:
 118:main_cm4.c    **** 			portYIELD_FROM_ISR(xHigherPriorityTaskWoken);
 258              		.loc 1 118 0
 259 002a 019B     		ldr	r3, [sp, #4]
 260 002c 3BB1     		cbz	r3, .L10
 261              		.loc 1 118 0 is_stmt 0 discriminator 1
ARM GAS  C:\Users\Mathieu\AppData\Local\Temp\ccJNHpye.s 			page 17


 262 002e 4FF08052 		mov	r2, #268435456
 263 0032 074B     		ldr	r3, .L14+12
 264 0034 1A60     		str	r2, [r3]
 265              		.syntax unified
 266              	@ 118 "main_cm4.c" 1
 267 0036 BFF34F8F 		dsb
 268              	@ 0 "" 2
 269              	@ 118 "main_cm4.c" 1
 270 003a BFF36F8F 		isb
 271              	@ 0 "" 2
 272              		.thumb
 273              		.syntax unified
 274              	.L10:
 119:main_cm4.c    **** 		}
 120:main_cm4.c    **** 	}
 275              		.loc 1 120 0 is_stmt 1
 276 003e 03B0     		add	sp, sp, #12
 277              		.cfi_def_cfa_offset 4
 278              		@ sp needed
 279 0040 5DF804FB 		ldr	pc, [sp], #4
 280              	.L15:
 281              		.align	2
 282              	.L14:
 283 0044 00000000 		.word	.LC0
 284 0048 2C000000 		.word	.LC1
 285 004c 00000000 		.word	xSemaphoreI2C
 286 0050 04ED00E0 		.word	-536810236
 287              		.cfi_endproc
 288              	.LFE515:
 289              		.size	I2C_Callback, .-I2C_Callback
 290              		.section	.text.MotionSensor_Init,"ax",%progbits
 291              		.align	2
 292              		.thumb
 293              		.thumb_func
 294              		.type	MotionSensor_Init, %function
 295              	MotionSensor_Init:
 296              	.LFB516:
 121:main_cm4.c    **** 
 122:main_cm4.c    **** 	//Fonction d'initialisation du BMI160 (capteur de mouvement)
 123:main_cm4.c    **** 	static int8_t MotionSensor_Init(void)
 124:main_cm4.c    **** 	{
 297              		.loc 1 124 0
 298              		.cfi_startproc
 299              		@ args = 0, pretend = 0, frame = 0
 300              		@ frame_needed = 0, uses_anonymous_args = 0
 301 0000 08B5     		push	{r3, lr}
 302              		.cfi_def_cfa_offset 8
 303              		.cfi_offset 3, -8
 304              		.cfi_offset 14, -4
 305              	.LVL30:
 125:main_cm4.c    **** 		/* Variable used to store the return values of BMI160 APIs */
 126:main_cm4.c    **** 		uint8_t rslt        = BMI160_OK;
 127:main_cm4.c    **** 		
 128:main_cm4.c    **** 		/* Start the I2C master interface for BMI160 motion sensor */
 129:main_cm4.c    **** 		I2C_Start();
 306              		.loc 1 129 0
 307 0002 FFF7FEFF 		bl	I2C_Start
ARM GAS  C:\Users\Mathieu\AppData\Local\Temp\ccJNHpye.s 			page 18


 308              	.LVL31:
 309              	.LBB22:
 310              	.LBB23:
 311              	.LBB24:
 312              		.file 3 "Generated_Source\\PSoC6\\pdl\\drivers/peripheral/scb/cy_scb_i2c.h"
   1:Generated_Source\PSoC6\pdl\drivers/peripheral/scb/cy_scb_i2c.h **** /***************************************************************************//**
   2:Generated_Source\PSoC6\pdl\drivers/peripheral/scb/cy_scb_i2c.h **** * \file cy_scb_i2c.h
   3:Generated_Source\PSoC6\pdl\drivers/peripheral/scb/cy_scb_i2c.h **** * \version 2.20
   4:Generated_Source\PSoC6\pdl\drivers/peripheral/scb/cy_scb_i2c.h **** *
   5:Generated_Source\PSoC6\pdl\drivers/peripheral/scb/cy_scb_i2c.h **** * Provides I2C API declarations of the SCB driver.
   6:Generated_Source\PSoC6\pdl\drivers/peripheral/scb/cy_scb_i2c.h **** *
   7:Generated_Source\PSoC6\pdl\drivers/peripheral/scb/cy_scb_i2c.h **** ********************************************************************************
   8:Generated_Source\PSoC6\pdl\drivers/peripheral/scb/cy_scb_i2c.h **** * \copyright
   9:Generated_Source\PSoC6\pdl\drivers/peripheral/scb/cy_scb_i2c.h **** * Copyright 2016-2018, Cypress Semiconductor Corporation.  All rights reserved.
  10:Generated_Source\PSoC6\pdl\drivers/peripheral/scb/cy_scb_i2c.h **** * You may use this file only in accordance with the license, terms, conditions,
  11:Generated_Source\PSoC6\pdl\drivers/peripheral/scb/cy_scb_i2c.h **** * disclaimers, and limitations in the end user license agreement accompanying
  12:Generated_Source\PSoC6\pdl\drivers/peripheral/scb/cy_scb_i2c.h **** * the software package with which this file was provided.
  13:Generated_Source\PSoC6\pdl\drivers/peripheral/scb/cy_scb_i2c.h **** *******************************************************************************/
  14:Generated_Source\PSoC6\pdl\drivers/peripheral/scb/cy_scb_i2c.h **** 
  15:Generated_Source\PSoC6\pdl\drivers/peripheral/scb/cy_scb_i2c.h **** /**
  16:Generated_Source\PSoC6\pdl\drivers/peripheral/scb/cy_scb_i2c.h **** * \addtogroup group_scb_i2c
  17:Generated_Source\PSoC6\pdl\drivers/peripheral/scb/cy_scb_i2c.h **** * \{
  18:Generated_Source\PSoC6\pdl\drivers/peripheral/scb/cy_scb_i2c.h **** * Driver API for I2C Bus Peripheral
  19:Generated_Source\PSoC6\pdl\drivers/peripheral/scb/cy_scb_i2c.h **** *
  20:Generated_Source\PSoC6\pdl\drivers/peripheral/scb/cy_scb_i2c.h **** * I2C - The Inter-Integrated Circuit (I2C) bus is an industry-standard.
  21:Generated_Source\PSoC6\pdl\drivers/peripheral/scb/cy_scb_i2c.h **** *
  22:Generated_Source\PSoC6\pdl\drivers/peripheral/scb/cy_scb_i2c.h **** * The functions and other declarations used in this part of the driver are in 
  23:Generated_Source\PSoC6\pdl\drivers/peripheral/scb/cy_scb_i2c.h **** * cy_scb_i2c.h. You can also include cy_pdl.h (ModusToolbox only) to get access 
  24:Generated_Source\PSoC6\pdl\drivers/peripheral/scb/cy_scb_i2c.h **** * to all functions and declarations in the PDL.
  25:Generated_Source\PSoC6\pdl\drivers/peripheral/scb/cy_scb_i2c.h **** *
  26:Generated_Source\PSoC6\pdl\drivers/peripheral/scb/cy_scb_i2c.h **** * The I2C peripheral driver provides an API to implement I2C slave, master,
  27:Generated_Source\PSoC6\pdl\drivers/peripheral/scb/cy_scb_i2c.h **** * or master-slave devices based on the SCB hardware block.
  28:Generated_Source\PSoC6\pdl\drivers/peripheral/scb/cy_scb_i2c.h **** * I2C devices based on SCB hardware are compatible with I2C
  29:Generated_Source\PSoC6\pdl\drivers/peripheral/scb/cy_scb_i2c.h **** * Standard-mode, Fast-mode, and Fast-mode Plus specifications as defined in
  30:Generated_Source\PSoC6\pdl\drivers/peripheral/scb/cy_scb_i2c.h **** * the I2C-bus specification.
  31:Generated_Source\PSoC6\pdl\drivers/peripheral/scb/cy_scb_i2c.h **** *
  32:Generated_Source\PSoC6\pdl\drivers/peripheral/scb/cy_scb_i2c.h **** * Features:
  33:Generated_Source\PSoC6\pdl\drivers/peripheral/scb/cy_scb_i2c.h **** * * An industry-standard I2C bus interface
  34:Generated_Source\PSoC6\pdl\drivers/peripheral/scb/cy_scb_i2c.h **** * * Supports slave, master, and master-slave operation
  35:Generated_Source\PSoC6\pdl\drivers/peripheral/scb/cy_scb_i2c.h **** * * Supports standard data rates of 100/400/1000 kbps
  36:Generated_Source\PSoC6\pdl\drivers/peripheral/scb/cy_scb_i2c.h **** * * Hardware Address Match, multiple addresses
  37:Generated_Source\PSoC6\pdl\drivers/peripheral/scb/cy_scb_i2c.h **** * * Wake from Deep Sleep on Address Match
  38:Generated_Source\PSoC6\pdl\drivers/peripheral/scb/cy_scb_i2c.h **** *
  39:Generated_Source\PSoC6\pdl\drivers/peripheral/scb/cy_scb_i2c.h **** ********************************************************************************
  40:Generated_Source\PSoC6\pdl\drivers/peripheral/scb/cy_scb_i2c.h **** * \section group_scb_i2c_configuration Configuration Considerations
  41:Generated_Source\PSoC6\pdl\drivers/peripheral/scb/cy_scb_i2c.h **** ********************************************************************************
  42:Generated_Source\PSoC6\pdl\drivers/peripheral/scb/cy_scb_i2c.h **** * The I2C driver configuration can be divided to number of sequential
  43:Generated_Source\PSoC6\pdl\drivers/peripheral/scb/cy_scb_i2c.h **** * steps listed below:
  44:Generated_Source\PSoC6\pdl\drivers/peripheral/scb/cy_scb_i2c.h **** * * \ref group_scb_i2c_config
  45:Generated_Source\PSoC6\pdl\drivers/peripheral/scb/cy_scb_i2c.h **** * * \ref group_scb_i2c_pins
  46:Generated_Source\PSoC6\pdl\drivers/peripheral/scb/cy_scb_i2c.h **** * * \ref group_scb_i2c_clock
  47:Generated_Source\PSoC6\pdl\drivers/peripheral/scb/cy_scb_i2c.h **** * * \ref group_scb_i2c_data_rate
  48:Generated_Source\PSoC6\pdl\drivers/peripheral/scb/cy_scb_i2c.h **** * * \ref group_scb_i2c_intr
  49:Generated_Source\PSoC6\pdl\drivers/peripheral/scb/cy_scb_i2c.h **** * * \ref group_scb_i2c_enable
  50:Generated_Source\PSoC6\pdl\drivers/peripheral/scb/cy_scb_i2c.h **** *
  51:Generated_Source\PSoC6\pdl\drivers/peripheral/scb/cy_scb_i2c.h **** * \note
  52:Generated_Source\PSoC6\pdl\drivers/peripheral/scb/cy_scb_i2c.h **** * I2C driver is built on top of the SCB hardware block. The SCB3 instance is
ARM GAS  C:\Users\Mathieu\AppData\Local\Temp\ccJNHpye.s 			page 19


  53:Generated_Source\PSoC6\pdl\drivers/peripheral/scb/cy_scb_i2c.h **** * used as an example for all code snippets. Modify the code to match your
  54:Generated_Source\PSoC6\pdl\drivers/peripheral/scb/cy_scb_i2c.h **** * design.
  55:Generated_Source\PSoC6\pdl\drivers/peripheral/scb/cy_scb_i2c.h **** *
  56:Generated_Source\PSoC6\pdl\drivers/peripheral/scb/cy_scb_i2c.h **** ********************************************************************************
  57:Generated_Source\PSoC6\pdl\drivers/peripheral/scb/cy_scb_i2c.h **** * \subsection group_scb_i2c_config Configure I2C
  58:Generated_Source\PSoC6\pdl\drivers/peripheral/scb/cy_scb_i2c.h **** ********************************************************************************
  59:Generated_Source\PSoC6\pdl\drivers/peripheral/scb/cy_scb_i2c.h **** * To set up the I2C  driver, provide the configuration parameters in the
  60:Generated_Source\PSoC6\pdl\drivers/peripheral/scb/cy_scb_i2c.h **** * \ref cy_stc_scb_i2c_config_t structure. Provide i2cMode to the select
  61:Generated_Source\PSoC6\pdl\drivers/peripheral/scb/cy_scb_i2c.h **** * operation mode slave, master or master-slave. The useRxFifo and useTxFifo 
  62:Generated_Source\PSoC6\pdl\drivers/peripheral/scb/cy_scb_i2c.h **** * parameters specify if RX and TX FIFO is used during operation. Typically, both
  63:Generated_Source\PSoC6\pdl\drivers/peripheral/scb/cy_scb_i2c.h **** * FIFOs should be enabled to reduce possibility of clock stringing. However, 
  64:Generated_Source\PSoC6\pdl\drivers/peripheral/scb/cy_scb_i2c.h **** * using RX FIFO has side effects that needs to be taken into account 
  65:Generated_Source\PSoC6\pdl\drivers/peripheral/scb/cy_scb_i2c.h **** * (see useRxFifo field description in \ref cy_stc_scb_i2c_config_t structure). 
  66:Generated_Source\PSoC6\pdl\drivers/peripheral/scb/cy_scb_i2c.h **** * For master modes, parameters lowPhaseDutyCycle, highPhaseDutyCycle and 
  67:Generated_Source\PSoC6\pdl\drivers/peripheral/scb/cy_scb_i2c.h **** * enableDigitalFilter can be used to define output data rate (refer to section 
  68:Generated_Source\PSoC6\pdl\drivers/peripheral/scb/cy_scb_i2c.h **** * \ref group_scb_i2c_data_rate for more information).
  69:Generated_Source\PSoC6\pdl\drivers/peripheral/scb/cy_scb_i2c.h **** * For slave mode, provide the slaveAddress and slaveAddressMask. The other 
  70:Generated_Source\PSoC6\pdl\drivers/peripheral/scb/cy_scb_i2c.h **** * parameters are optional for operation.\n
  71:Generated_Source\PSoC6\pdl\drivers/peripheral/scb/cy_scb_i2c.h **** * To initialize the driver, call \ref Cy_SCB_I2C_Init
  72:Generated_Source\PSoC6\pdl\drivers/peripheral/scb/cy_scb_i2c.h **** * function providing a pointer to the populated \ref cy_stc_scb_i2c_config_t
  73:Generated_Source\PSoC6\pdl\drivers/peripheral/scb/cy_scb_i2c.h **** * structure and the allocated \ref cy_stc_scb_i2c_context_t structure.
  74:Generated_Source\PSoC6\pdl\drivers/peripheral/scb/cy_scb_i2c.h **** *
  75:Generated_Source\PSoC6\pdl\drivers/peripheral/scb/cy_scb_i2c.h **** * \snippet SCB_CompDatasheet_sut_01_revA.cydsn\i2c_snippets.c I2C_CFG
  76:Generated_Source\PSoC6\pdl\drivers/peripheral/scb/cy_scb_i2c.h **** *
  77:Generated_Source\PSoC6\pdl\drivers/peripheral/scb/cy_scb_i2c.h **** * Set up I2C slave read and write buffer before enabling its
  78:Generated_Source\PSoC6\pdl\drivers/peripheral/scb/cy_scb_i2c.h **** * operation using \ref Cy_SCB_I2C_SlaveConfigReadBuf and \ref
  79:Generated_Source\PSoC6\pdl\drivers/peripheral/scb/cy_scb_i2c.h **** * Cy_SCB_I2C_SlaveConfigWriteBuf appropriately. Note that the master reads
  80:Generated_Source\PSoC6\pdl\drivers/peripheral/scb/cy_scb_i2c.h **** * data from the slave read buffer and writes data into the slave write buffer.
  81:Generated_Source\PSoC6\pdl\drivers/peripheral/scb/cy_scb_i2c.h **** *
  82:Generated_Source\PSoC6\pdl\drivers/peripheral/scb/cy_scb_i2c.h **** * \snippet SCB_CompDatasheet_sut_01_revA.cydsn\i2c_snippets.c I2C_CFG_BUFFER
  83:Generated_Source\PSoC6\pdl\drivers/peripheral/scb/cy_scb_i2c.h **** *
  84:Generated_Source\PSoC6\pdl\drivers/peripheral/scb/cy_scb_i2c.h **** ********************************************************************************
  85:Generated_Source\PSoC6\pdl\drivers/peripheral/scb/cy_scb_i2c.h **** * \subsection group_scb_i2c_pins Assign and Configure Pins
  86:Generated_Source\PSoC6\pdl\drivers/peripheral/scb/cy_scb_i2c.h **** ********************************************************************************
  87:Generated_Source\PSoC6\pdl\drivers/peripheral/scb/cy_scb_i2c.h **** * Only dedicated SCB pins can be used for I2C operation. The HSIOM
  88:Generated_Source\PSoC6\pdl\drivers/peripheral/scb/cy_scb_i2c.h **** * register must be configured to connect dedicated SCB I2C pins to the 
  89:Generated_Source\PSoC6\pdl\drivers/peripheral/scb/cy_scb_i2c.h **** * SCB block. Also the I2C pins must be configured in Open-Drain, Drives Low mode 
  90:Generated_Source\PSoC6\pdl\drivers/peripheral/scb/cy_scb_i2c.h **** * (this pins  configuration implies usage of external pull-up resistors):
  91:Generated_Source\PSoC6\pdl\drivers/peripheral/scb/cy_scb_i2c.h **** *
  92:Generated_Source\PSoC6\pdl\drivers/peripheral/scb/cy_scb_i2c.h **** * \snippet SCB_CompDatasheet_sut_01_revA.cydsn\i2c_snippets.c I2C_CFG_PINS
  93:Generated_Source\PSoC6\pdl\drivers/peripheral/scb/cy_scb_i2c.h **** *
  94:Generated_Source\PSoC6\pdl\drivers/peripheral/scb/cy_scb_i2c.h **** * \note
  95:Generated_Source\PSoC6\pdl\drivers/peripheral/scb/cy_scb_i2c.h **** * The alternative pins configuration is Resistive Pull-ups which implies usage
  96:Generated_Source\PSoC6\pdl\drivers/peripheral/scb/cy_scb_i2c.h **** * internal pull-up resistors. This configuration is not recommended because
  97:Generated_Source\PSoC6\pdl\drivers/peripheral/scb/cy_scb_i2c.h **** * resistor value is fixed and cannot be used for all supported data rates.
  98:Generated_Source\PSoC6\pdl\drivers/peripheral/scb/cy_scb_i2c.h **** * Refer to the device datasheet parameter RPULLUP for resistor value specifications.
  99:Generated_Source\PSoC6\pdl\drivers/peripheral/scb/cy_scb_i2c.h **** *
 100:Generated_Source\PSoC6\pdl\drivers/peripheral/scb/cy_scb_i2c.h **** ********************************************************************************
 101:Generated_Source\PSoC6\pdl\drivers/peripheral/scb/cy_scb_i2c.h **** * \subsection group_scb_i2c_clock Assign Clock Divider
 102:Generated_Source\PSoC6\pdl\drivers/peripheral/scb/cy_scb_i2c.h **** ********************************************************************************
 103:Generated_Source\PSoC6\pdl\drivers/peripheral/scb/cy_scb_i2c.h **** * A clock source must be connected to the SCB block to oversample input and
 104:Generated_Source\PSoC6\pdl\drivers/peripheral/scb/cy_scb_i2c.h **** * output signals, in this document this clock will be referred as clk_scb.
 105:Generated_Source\PSoC6\pdl\drivers/peripheral/scb/cy_scb_i2c.h **** * You must use one of the 8-bit or 16-bit dividers. Use the \ref group_sysclk 
 106:Generated_Source\PSoC6\pdl\drivers/peripheral/scb/cy_scb_i2c.h **** * driver API to do this.
 107:Generated_Source\PSoC6\pdl\drivers/peripheral/scb/cy_scb_i2c.h **** *
 108:Generated_Source\PSoC6\pdl\drivers/peripheral/scb/cy_scb_i2c.h **** * \snippet SCB_CompDatasheet_sut_01_revA.cydsn\i2c_snippets.c I2C_CFG_ASSIGN_CLOCK
 109:Generated_Source\PSoC6\pdl\drivers/peripheral/scb/cy_scb_i2c.h **** *
ARM GAS  C:\Users\Mathieu\AppData\Local\Temp\ccJNHpye.s 			page 20


 110:Generated_Source\PSoC6\pdl\drivers/peripheral/scb/cy_scb_i2c.h **** ********************************************************************************
 111:Generated_Source\PSoC6\pdl\drivers/peripheral/scb/cy_scb_i2c.h **** * \subsection group_scb_i2c_data_rate Configure Data Rate
 112:Generated_Source\PSoC6\pdl\drivers/peripheral/scb/cy_scb_i2c.h **** ********************************************************************************
 113:Generated_Source\PSoC6\pdl\drivers/peripheral/scb/cy_scb_i2c.h **** * To get I2C slave operation with the desired data rate, the clk_scb must be
 114:Generated_Source\PSoC6\pdl\drivers/peripheral/scb/cy_scb_i2c.h **** * fast enough to provide sufficient oversampling. Use the
 115:Generated_Source\PSoC6\pdl\drivers/peripheral/scb/cy_scb_i2c.h **** * \ref group_sysclk driver API to do this.
 116:Generated_Source\PSoC6\pdl\drivers/peripheral/scb/cy_scb_i2c.h **** *
 117:Generated_Source\PSoC6\pdl\drivers/peripheral/scb/cy_scb_i2c.h **** * \snippet SCB_CompDatasheet_sut_01_revA.cydsn\i2c_snippets.c I2C_CFG_DATA_RATE_SLAVE
 118:Generated_Source\PSoC6\pdl\drivers/peripheral/scb/cy_scb_i2c.h **** *
 119:Generated_Source\PSoC6\pdl\drivers/peripheral/scb/cy_scb_i2c.h **** * To get I2C master operation with the desired data rate, the source clock
 120:Generated_Source\PSoC6\pdl\drivers/peripheral/scb/cy_scb_i2c.h **** * frequency and SCL low and high phase duration must be configured. Use the
 121:Generated_Source\PSoC6\pdl\drivers/peripheral/scb/cy_scb_i2c.h **** * \ref group_sysclk driver API to configure source clock frequency. Then call
 122:Generated_Source\PSoC6\pdl\drivers/peripheral/scb/cy_scb_i2c.h **** * \ref Cy_SCB_I2C_SetDataRate to set the SCL low, high phase duration and 
 123:Generated_Source\PSoC6\pdl\drivers/peripheral/scb/cy_scb_i2c.h **** * digital filter. This function sets SCL low and high phase settings based on 
 124:Generated_Source\PSoC6\pdl\drivers/peripheral/scb/cy_scb_i2c.h **** * source clock frequency.
 125:Generated_Source\PSoC6\pdl\drivers/peripheral/scb/cy_scb_i2c.h **** *
 126:Generated_Source\PSoC6\pdl\drivers/peripheral/scb/cy_scb_i2c.h **** * \snippet SCB_CompDatasheet_sut_01_revA.cydsn\i2c_snippets.c I2C_CFG_DATA_RATE_MASTER
 127:Generated_Source\PSoC6\pdl\drivers/peripheral/scb/cy_scb_i2c.h **** *
 128:Generated_Source\PSoC6\pdl\drivers/peripheral/scb/cy_scb_i2c.h **** * Alternatively, the low, high phase and digital filter can be set directly 
 129:Generated_Source\PSoC6\pdl\drivers/peripheral/scb/cy_scb_i2c.h **** * using configuration structure \ref cy_stc_scb_i2c_config_t fields 
 130:Generated_Source\PSoC6\pdl\drivers/peripheral/scb/cy_scb_i2c.h **** * lowPhaseDutyCycle, highPhaseDutyCycle and enableDigitalFilter appropriately.\n
 131:Generated_Source\PSoC6\pdl\drivers/peripheral/scb/cy_scb_i2c.h **** * <b>Refer to the technical reference manual (TRM) section I2C sub-section
 132:Generated_Source\PSoC6\pdl\drivers/peripheral/scb/cy_scb_i2c.h **** * Oversampling and Bit Rate to get information how to configure I2C to run with
 133:Generated_Source\PSoC6\pdl\drivers/peripheral/scb/cy_scb_i2c.h **** * the desired data rate.</b>
 134:Generated_Source\PSoC6\pdl\drivers/peripheral/scb/cy_scb_i2c.h **** *
 135:Generated_Source\PSoC6\pdl\drivers/peripheral/scb/cy_scb_i2c.h **** * \note
 136:Generated_Source\PSoC6\pdl\drivers/peripheral/scb/cy_scb_i2c.h **** * For I2C slave, the analog filter is used for all supported data rates. \n
 137:Generated_Source\PSoC6\pdl\drivers/peripheral/scb/cy_scb_i2c.h **** * For I2C master, the analog filter is used for Standard and Fast modes and the
 138:Generated_Source\PSoC6\pdl\drivers/peripheral/scb/cy_scb_i2c.h **** * digital filter for Fast Plus mode.
 139:Generated_Source\PSoC6\pdl\drivers/peripheral/scb/cy_scb_i2c.h **** *
 140:Generated_Source\PSoC6\pdl\drivers/peripheral/scb/cy_scb_i2c.h **** ********************************************************************************
 141:Generated_Source\PSoC6\pdl\drivers/peripheral/scb/cy_scb_i2c.h **** * \subsection group_scb_i2c_intr Configure Interrupt
 142:Generated_Source\PSoC6\pdl\drivers/peripheral/scb/cy_scb_i2c.h **** ********************************************************************************
 143:Generated_Source\PSoC6\pdl\drivers/peripheral/scb/cy_scb_i2c.h **** * The interrupt is mandatory for I2C operation. The exception is the when only  
 144:Generated_Source\PSoC6\pdl\drivers/peripheral/scb/cy_scb_i2c.h **** * the \ref group_scb_i2c_master_low_level_functions functions are used.
 145:Generated_Source\PSoC6\pdl\drivers/peripheral/scb/cy_scb_i2c.h **** * The driver provides three interrupt functions: \ref Cy_SCB_I2C_Interrupt,
 146:Generated_Source\PSoC6\pdl\drivers/peripheral/scb/cy_scb_i2c.h **** * \ref Cy_SCB_I2C_SlaveInterrupt, and \ref Cy_SCB_I2C_MasterInterrupt. One of
 147:Generated_Source\PSoC6\pdl\drivers/peripheral/scb/cy_scb_i2c.h **** * these functions must be called in the interrupt handler for the selected SCB
 148:Generated_Source\PSoC6\pdl\drivers/peripheral/scb/cy_scb_i2c.h **** * instance. Call \ref Cy_SCB_I2C_SlaveInterrupt when I2C is configured to
 149:Generated_Source\PSoC6\pdl\drivers/peripheral/scb/cy_scb_i2c.h **** * operate as a slave, \ref Cy_SCB_I2C_MasterInterrupt when I2C is configured
 150:Generated_Source\PSoC6\pdl\drivers/peripheral/scb/cy_scb_i2c.h **** * to operate as a master and \ref Cy_SCB_I2C_Interrupt when I2C is configured
 151:Generated_Source\PSoC6\pdl\drivers/peripheral/scb/cy_scb_i2c.h **** * to operate as master and slave. Using the slave- or master-specific interrupt
 152:Generated_Source\PSoC6\pdl\drivers/peripheral/scb/cy_scb_i2c.h **** * function allows reducing the flash consumed by the I2C driver. Also this
 153:Generated_Source\PSoC6\pdl\drivers/peripheral/scb/cy_scb_i2c.h **** * interrupt must be enabled in the NVIC otherwise it will not work.
 154:Generated_Source\PSoC6\pdl\drivers/peripheral/scb/cy_scb_i2c.h **** * \note
 155:Generated_Source\PSoC6\pdl\drivers/peripheral/scb/cy_scb_i2c.h **** * The I2C driver documentation refers to the \ref Cy_SCB_I2C_Interrupt function
 156:Generated_Source\PSoC6\pdl\drivers/peripheral/scb/cy_scb_i2c.h **** * when interrupt processing is mandatory for the operation. This is done to
 157:Generated_Source\PSoC6\pdl\drivers/peripheral/scb/cy_scb_i2c.h **** * simplify the readability of the driver's documentation. The application should
 158:Generated_Source\PSoC6\pdl\drivers/peripheral/scb/cy_scb_i2c.h **** *  call the slave- or master-specific interrupt functions \ref Cy_SCB_I2C_SlaveInterrupt
 159:Generated_Source\PSoC6\pdl\drivers/peripheral/scb/cy_scb_i2c.h **** * or \ref Cy_SCB_I2C_MasterInterrupt, when appropriate.
 160:Generated_Source\PSoC6\pdl\drivers/peripheral/scb/cy_scb_i2c.h **** *
 161:Generated_Source\PSoC6\pdl\drivers/peripheral/scb/cy_scb_i2c.h **** * \snippet SCB_CompDatasheet_sut_01_revA.cydsn\i2c_snippets.c I2C_INTR_A
 162:Generated_Source\PSoC6\pdl\drivers/peripheral/scb/cy_scb_i2c.h **** * \snippet SCB_CompDatasheet_sut_01_revA.cydsn\i2c_snippets.c I2C_INTR_B
 163:Generated_Source\PSoC6\pdl\drivers/peripheral/scb/cy_scb_i2c.h **** *
 164:Generated_Source\PSoC6\pdl\drivers/peripheral/scb/cy_scb_i2c.h **** ********************************************************************************
 165:Generated_Source\PSoC6\pdl\drivers/peripheral/scb/cy_scb_i2c.h **** * \subsection group_scb_i2c_enable Enable I2C
 166:Generated_Source\PSoC6\pdl\drivers/peripheral/scb/cy_scb_i2c.h **** ********************************************************************************
ARM GAS  C:\Users\Mathieu\AppData\Local\Temp\ccJNHpye.s 			page 21


 167:Generated_Source\PSoC6\pdl\drivers/peripheral/scb/cy_scb_i2c.h **** * Finally, enable the I2C operation by calling \ref Cy_SCB_I2C_Enable. Then I2C
 168:Generated_Source\PSoC6\pdl\drivers/peripheral/scb/cy_scb_i2c.h **** * slave starts respond to the assigned address and I2C master ready to execute
 169:Generated_Source\PSoC6\pdl\drivers/peripheral/scb/cy_scb_i2c.h **** * transfers.
 170:Generated_Source\PSoC6\pdl\drivers/peripheral/scb/cy_scb_i2c.h **** *
 171:Generated_Source\PSoC6\pdl\drivers/peripheral/scb/cy_scb_i2c.h **** * \snippet SCB_CompDatasheet_sut_01_revA.cydsn\i2c_snippets.c I2C_ENABLE
 172:Generated_Source\PSoC6\pdl\drivers/peripheral/scb/cy_scb_i2c.h **** *
 173:Generated_Source\PSoC6\pdl\drivers/peripheral/scb/cy_scb_i2c.h **** * \section group_scb_i2c_use_cases Common Use Cases
 174:Generated_Source\PSoC6\pdl\drivers/peripheral/scb/cy_scb_i2c.h **** *
 175:Generated_Source\PSoC6\pdl\drivers/peripheral/scb/cy_scb_i2c.h **** ********************************************************************************
 176:Generated_Source\PSoC6\pdl\drivers/peripheral/scb/cy_scb_i2c.h **** * \subsection group_scb_i2c_master_mode Master Operation
 177:Generated_Source\PSoC6\pdl\drivers/peripheral/scb/cy_scb_i2c.h **** ********************************************************************************
 178:Generated_Source\PSoC6\pdl\drivers/peripheral/scb/cy_scb_i2c.h **** * The master API is divided into two categories:
 179:Generated_Source\PSoC6\pdl\drivers/peripheral/scb/cy_scb_i2c.h **** * \ref group_scb_i2c_master_high_level_functions and
 180:Generated_Source\PSoC6\pdl\drivers/peripheral/scb/cy_scb_i2c.h **** * \ref group_scb_i2c_master_low_level_functions. Therefore, there are two
 181:Generated_Source\PSoC6\pdl\drivers/peripheral/scb/cy_scb_i2c.h **** * methods for initiating I2C master transactions using either <b>Low-Level or
 182:Generated_Source\PSoC6\pdl\drivers/peripheral/scb/cy_scb_i2c.h **** * High-Level</b> API. These two methods are described below. Only one method
 183:Generated_Source\PSoC6\pdl\drivers/peripheral/scb/cy_scb_i2c.h **** * should be used at a time. <b>They should not be mixed.</b>
 184:Generated_Source\PSoC6\pdl\drivers/peripheral/scb/cy_scb_i2c.h **** *
 185:Generated_Source\PSoC6\pdl\drivers/peripheral/scb/cy_scb_i2c.h **** ********************************************************************************
 186:Generated_Source\PSoC6\pdl\drivers/peripheral/scb/cy_scb_i2c.h **** * \subsubsection  group_scb_i2c_master_hl Use High-Level Functions
 187:Generated_Source\PSoC6\pdl\drivers/peripheral/scb/cy_scb_i2c.h **** ********************************************************************************
 188:Generated_Source\PSoC6\pdl\drivers/peripheral/scb/cy_scb_i2c.h **** *  Call \ref Cy_SCB_I2C_MasterRead or \ref Cy_SCB_I2C_MasterWrite to
 189:Generated_Source\PSoC6\pdl\drivers/peripheral/scb/cy_scb_i2c.h **** * communicate with the slave. These functions do not block and only start a
 190:Generated_Source\PSoC6\pdl\drivers/peripheral/scb/cy_scb_i2c.h **** * transaction. After a transaction starts, the \ref Cy_SCB_I2C_Interrupt
 191:Generated_Source\PSoC6\pdl\drivers/peripheral/scb/cy_scb_i2c.h **** * handles further data transaction until its completion (successfully or 
 192:Generated_Source\PSoC6\pdl\drivers/peripheral/scb/cy_scb_i2c.h **** * with error occurring). To monitor the transaction,
 193:Generated_Source\PSoC6\pdl\drivers/peripheral/scb/cy_scb_i2c.h **** * use \ref Cy_SCB_I2C_MasterGetStatus or register callback function using
 194:Generated_Source\PSoC6\pdl\drivers/peripheral/scb/cy_scb_i2c.h **** * \ref Cy_SCB_I2C_RegisterEventCallback to be notified about
 195:Generated_Source\PSoC6\pdl\drivers/peripheral/scb/cy_scb_i2c.h **** * \ref group_scb_i2c_macros_callback_events.
 196:Generated_Source\PSoC6\pdl\drivers/peripheral/scb/cy_scb_i2c.h **** *
 197:Generated_Source\PSoC6\pdl\drivers/peripheral/scb/cy_scb_i2c.h **** * \snippet SCB_CompDatasheet_sut_01_revA.cydsn\i2c_snippets.c I2C_MASTER_WRITE_READ_INT
 198:Generated_Source\PSoC6\pdl\drivers/peripheral/scb/cy_scb_i2c.h **** *
 199:Generated_Source\PSoC6\pdl\drivers/peripheral/scb/cy_scb_i2c.h **** ********************************************************************************
 200:Generated_Source\PSoC6\pdl\drivers/peripheral/scb/cy_scb_i2c.h **** * \subsubsection group_scb_i2c_master_ll Use Low-Level Functions
 201:Generated_Source\PSoC6\pdl\drivers/peripheral/scb/cy_scb_i2c.h **** ********************************************************************************
 202:Generated_Source\PSoC6\pdl\drivers/peripheral/scb/cy_scb_i2c.h **** * Call \ref Cy_SCB_I2C_MasterSendStart to generate a start, send an address
 203:Generated_Source\PSoC6\pdl\drivers/peripheral/scb/cy_scb_i2c.h **** * with the Read/Write direction bit, and receive acknowledgment. After the
 204:Generated_Source\PSoC6\pdl\drivers/peripheral/scb/cy_scb_i2c.h **** * address is ACKed by the slave, the transaction can be continued by calling
 205:Generated_Source\PSoC6\pdl\drivers/peripheral/scb/cy_scb_i2c.h **** * \ref Cy_SCB_I2C_MasterReadByte or \ref Cy_SCB_I2C_MasterWriteByte depending
 206:Generated_Source\PSoC6\pdl\drivers/peripheral/scb/cy_scb_i2c.h **** * on its direction. These functions handle one byte per call. Therefore,
 207:Generated_Source\PSoC6\pdl\drivers/peripheral/scb/cy_scb_i2c.h **** * they should be called for each byte in the transaction. Note that for the
 208:Generated_Source\PSoC6\pdl\drivers/peripheral/scb/cy_scb_i2c.h **** * Read transaction, the last byte must be NAKed. To complete the current
 209:Generated_Source\PSoC6\pdl\drivers/peripheral/scb/cy_scb_i2c.h **** * transaction, call \ref Cy_SCB_I2C_MasterSendStop or call
 210:Generated_Source\PSoC6\pdl\drivers/peripheral/scb/cy_scb_i2c.h **** * \ref Cy_SCB_I2C_MasterSendReStart to complete the current transaction and
 211:Generated_Source\PSoC6\pdl\drivers/peripheral/scb/cy_scb_i2c.h **** * start a new one. Typically, do a restart to change the transaction
 212:Generated_Source\PSoC6\pdl\drivers/peripheral/scb/cy_scb_i2c.h **** * direction without releasing the bus from the master control.
 213:Generated_Source\PSoC6\pdl\drivers/peripheral/scb/cy_scb_i2c.h **** * The Low-Level functions are blocking and do not require calling
 214:Generated_Source\PSoC6\pdl\drivers/peripheral/scb/cy_scb_i2c.h **** * \ref Cy_SCB_I2C_Interrupt inside the interrupt handler. Using these
 215:Generated_Source\PSoC6\pdl\drivers/peripheral/scb/cy_scb_i2c.h **** * functions requires extensive knowledge of the I2C protocol to execute
 216:Generated_Source\PSoC6\pdl\drivers/peripheral/scb/cy_scb_i2c.h **** * transactions correctly.
 217:Generated_Source\PSoC6\pdl\drivers/peripheral/scb/cy_scb_i2c.h **** *
 218:Generated_Source\PSoC6\pdl\drivers/peripheral/scb/cy_scb_i2c.h **** * <b>Master Write Operation</b>
 219:Generated_Source\PSoC6\pdl\drivers/peripheral/scb/cy_scb_i2c.h **** * \snippet SCB_CompDatasheet_sut_01_revA.cydsn\i2c_snippets.c I2C_MASTER_WRITE_MANUAL
 220:Generated_Source\PSoC6\pdl\drivers/peripheral/scb/cy_scb_i2c.h **** *
 221:Generated_Source\PSoC6\pdl\drivers/peripheral/scb/cy_scb_i2c.h **** * <b>Master Read Operation</b>
 222:Generated_Source\PSoC6\pdl\drivers/peripheral/scb/cy_scb_i2c.h **** * \snippet SCB_CompDatasheet_sut_01_revA.cydsn\i2c_snippets.c I2C_MASTER_READ_MANUAL
 223:Generated_Source\PSoC6\pdl\drivers/peripheral/scb/cy_scb_i2c.h **** *
ARM GAS  C:\Users\Mathieu\AppData\Local\Temp\ccJNHpye.s 			page 22


 224:Generated_Source\PSoC6\pdl\drivers/peripheral/scb/cy_scb_i2c.h **** ********************************************************************************
 225:Generated_Source\PSoC6\pdl\drivers/peripheral/scb/cy_scb_i2c.h **** * \subsection group_scb_i2c_slave Slave Operation
 226:Generated_Source\PSoC6\pdl\drivers/peripheral/scb/cy_scb_i2c.h **** ********************************************************************************
 227:Generated_Source\PSoC6\pdl\drivers/peripheral/scb/cy_scb_i2c.h **** * Slave operation requires the \ref Cy_SCB_I2C_Interrupt be
 228:Generated_Source\PSoC6\pdl\drivers/peripheral/scb/cy_scb_i2c.h **** * called inside the interrupt handler. The read and write buffers must
 229:Generated_Source\PSoC6\pdl\drivers/peripheral/scb/cy_scb_i2c.h **** * be provided for the slave to enable communication with the master. Use
 230:Generated_Source\PSoC6\pdl\drivers/peripheral/scb/cy_scb_i2c.h **** * \ref Cy_SCB_I2C_SlaveConfigReadBuf and \ref Cy_SCB_I2C_SlaveConfigWriteBuf
 231:Generated_Source\PSoC6\pdl\drivers/peripheral/scb/cy_scb_i2c.h **** * for this purpose. Note that after transaction completion the buffer must be
 232:Generated_Source\PSoC6\pdl\drivers/peripheral/scb/cy_scb_i2c.h **** * configured again. Otherwise, the same buffer is used starting from the point
 233:Generated_Source\PSoC6\pdl\drivers/peripheral/scb/cy_scb_i2c.h **** * where the master stopped a previous transaction.
 234:Generated_Source\PSoC6\pdl\drivers/peripheral/scb/cy_scb_i2c.h **** * For example: The read buffer is configured to be 10 bytes and the master reads
 235:Generated_Source\PSoC6\pdl\drivers/peripheral/scb/cy_scb_i2c.h **** * 8 bytes. If the read buffer is not configured again, the next master read
 236:Generated_Source\PSoC6\pdl\drivers/peripheral/scb/cy_scb_i2c.h **** * will start from the 9th byte.
 237:Generated_Source\PSoC6\pdl\drivers/peripheral/scb/cy_scb_i2c.h **** * To monitor the transaction status, use \ref Cy_SCB_I2C_SlaveGetStatus or
 238:Generated_Source\PSoC6\pdl\drivers/peripheral/scb/cy_scb_i2c.h **** * use \ref Cy_SCB_I2C_RegisterEventCallback to register a callback function
 239:Generated_Source\PSoC6\pdl\drivers/peripheral/scb/cy_scb_i2c.h **** * to be notified about \ref group_scb_i2c_macros_callback_events.
 240:Generated_Source\PSoC6\pdl\drivers/peripheral/scb/cy_scb_i2c.h **** *
 241:Generated_Source\PSoC6\pdl\drivers/peripheral/scb/cy_scb_i2c.h **** * <b>Get Slave Events Notification</b>
 242:Generated_Source\PSoC6\pdl\drivers/peripheral/scb/cy_scb_i2c.h **** * \snippet SCB_CompDatasheet_sut_01_revA.cydsn\i2c_snippets.c I2C_SLAVE_REG_CALLBACK
 243:Generated_Source\PSoC6\pdl\drivers/peripheral/scb/cy_scb_i2c.h **** * \snippet SCB_CompDatasheet_sut_01_revA.cydsn\i2c_snippets.c I2C_SLAVE_NOTIFICATION
 244:Generated_Source\PSoC6\pdl\drivers/peripheral/scb/cy_scb_i2c.h **** *
 245:Generated_Source\PSoC6\pdl\drivers/peripheral/scb/cy_scb_i2c.h **** * <b>Polling Slave Completion Events</b>
 246:Generated_Source\PSoC6\pdl\drivers/peripheral/scb/cy_scb_i2c.h **** * \snippet SCB_CompDatasheet_sut_01_revA.cydsn\i2c_snippets.c I2C_SLAVE_POLLING
 247:Generated_Source\PSoC6\pdl\drivers/peripheral/scb/cy_scb_i2c.h **** *
 248:Generated_Source\PSoC6\pdl\drivers/peripheral/scb/cy_scb_i2c.h **** * \note
 249:Generated_Source\PSoC6\pdl\drivers/peripheral/scb/cy_scb_i2c.h **** * All slave API (except \ref Cy_SCB_I2C_SlaveAbortRead and
 250:Generated_Source\PSoC6\pdl\drivers/peripheral/scb/cy_scb_i2c.h **** * \ref Cy_SCB_I2C_SlaveAbortWrite) <b>are not interrupt-protected</b> and to
 251:Generated_Source\PSoC6\pdl\drivers/peripheral/scb/cy_scb_i2c.h **** * prevent a race condition, they should be protected from the I2C interruption
 252:Generated_Source\PSoC6\pdl\drivers/peripheral/scb/cy_scb_i2c.h **** * in the place where they are called. The code snippet Polling Slave 
 253:Generated_Source\PSoC6\pdl\drivers/peripheral/scb/cy_scb_i2c.h **** * Completion Events above shows how to prevent a race condition when detect 
 254:Generated_Source\PSoC6\pdl\drivers/peripheral/scb/cy_scb_i2c.h **** * transfer completion and update I2C slave write buffer. 
 255:Generated_Source\PSoC6\pdl\drivers/peripheral/scb/cy_scb_i2c.h **** * The simple example of race condition is: application updates slave read 
 256:Generated_Source\PSoC6\pdl\drivers/peripheral/scb/cy_scb_i2c.h **** * buffer the I2C master starts read transfer. The I2C interrupts read buffer 
 257:Generated_Source\PSoC6\pdl\drivers/peripheral/scb/cy_scb_i2c.h **** * update and I2C interrupt loads current read buffer content in the TX FIFO . 
 258:Generated_Source\PSoC6\pdl\drivers/peripheral/scb/cy_scb_i2c.h **** * After I2C interrupt returns the application updates remaining part of the read 
 259:Generated_Source\PSoC6\pdl\drivers/peripheral/scb/cy_scb_i2c.h **** * buffer. As a result the mater read partly updated buffer.
 260:Generated_Source\PSoC6\pdl\drivers/peripheral/scb/cy_scb_i2c.h **** *
 261:Generated_Source\PSoC6\pdl\drivers/peripheral/scb/cy_scb_i2c.h **** ********************************************************************************
 262:Generated_Source\PSoC6\pdl\drivers/peripheral/scb/cy_scb_i2c.h **** * \section group_scb_i2c_lp Low Power Support
 263:Generated_Source\PSoC6\pdl\drivers/peripheral/scb/cy_scb_i2c.h **** ********************************************************************************
 264:Generated_Source\PSoC6\pdl\drivers/peripheral/scb/cy_scb_i2c.h **** * The I2C driver provides callback functions to handle power mode transition.
 265:Generated_Source\PSoC6\pdl\drivers/peripheral/scb/cy_scb_i2c.h **** * The callback \ref Cy_SCB_I2C_DeepSleepCallback must be called
 266:Generated_Source\PSoC6\pdl\drivers/peripheral/scb/cy_scb_i2c.h **** * during execution of \ref Cy_SysPm_CpuEnterDeepSleep \ref Cy_SCB_I2C_HibernateCallback
 267:Generated_Source\PSoC6\pdl\drivers/peripheral/scb/cy_scb_i2c.h **** * must be called during execution of \ref Cy_SysPm_SystemEnterHibernate. To trigger the
 268:Generated_Source\PSoC6\pdl\drivers/peripheral/scb/cy_scb_i2c.h **** * callback execution, the callback must be registered before calling the
 269:Generated_Source\PSoC6\pdl\drivers/peripheral/scb/cy_scb_i2c.h **** * power mode transition function. Refer to \ref group_syspm driver for more
 270:Generated_Source\PSoC6\pdl\drivers/peripheral/scb/cy_scb_i2c.h **** * information about power mode transitions and callback registration.
 271:Generated_Source\PSoC6\pdl\drivers/peripheral/scb/cy_scb_i2c.h **** *
 272:Generated_Source\PSoC6\pdl\drivers/peripheral/scb/cy_scb_i2c.h **** * \note
 273:Generated_Source\PSoC6\pdl\drivers/peripheral/scb/cy_scb_i2c.h **** * Only applicable for <b>rev-08 of the CY8CKIT-062-BLE</b>.
 274:Generated_Source\PSoC6\pdl\drivers/peripheral/scb/cy_scb_i2c.h **** * For proper operation, when the I2C slave is configured to be a wakeup
 275:Generated_Source\PSoC6\pdl\drivers/peripheral/scb/cy_scb_i2c.h **** * source from Deep Sleep mode, the \ref Cy_SCB_I2C_DeepSleepCallback must be
 276:Generated_Source\PSoC6\pdl\drivers/peripheral/scb/cy_scb_i2c.h **** * copied and modified. Refer to the function description to get the details.
 277:Generated_Source\PSoC6\pdl\drivers/peripheral/scb/cy_scb_i2c.h **** *
 278:Generated_Source\PSoC6\pdl\drivers/peripheral/scb/cy_scb_i2c.h **** ********************************************************************************
 279:Generated_Source\PSoC6\pdl\drivers/peripheral/scb/cy_scb_i2c.h **** * \section group_scb_i2c_more_information More Information
 280:Generated_Source\PSoC6\pdl\drivers/peripheral/scb/cy_scb_i2c.h **** ********************************************************************************
ARM GAS  C:\Users\Mathieu\AppData\Local\Temp\ccJNHpye.s 			page 23


 281:Generated_Source\PSoC6\pdl\drivers/peripheral/scb/cy_scb_i2c.h **** * For more information on the SCB peripheral, refer to the technical reference
 282:Generated_Source\PSoC6\pdl\drivers/peripheral/scb/cy_scb_i2c.h **** * manual (TRM).
 283:Generated_Source\PSoC6\pdl\drivers/peripheral/scb/cy_scb_i2c.h **** *
 284:Generated_Source\PSoC6\pdl\drivers/peripheral/scb/cy_scb_i2c.h **** ********************************************************************************
 285:Generated_Source\PSoC6\pdl\drivers/peripheral/scb/cy_scb_i2c.h **** * \section group_scb_i2c_MISRA MISRA-C Compliance
 286:Generated_Source\PSoC6\pdl\drivers/peripheral/scb/cy_scb_i2c.h **** ********************************************************************************
 287:Generated_Source\PSoC6\pdl\drivers/peripheral/scb/cy_scb_i2c.h **** * <table class="doxtable">
 288:Generated_Source\PSoC6\pdl\drivers/peripheral/scb/cy_scb_i2c.h **** *   <tr>
 289:Generated_Source\PSoC6\pdl\drivers/peripheral/scb/cy_scb_i2c.h **** *     <th>MISRA Rule</th>
 290:Generated_Source\PSoC6\pdl\drivers/peripheral/scb/cy_scb_i2c.h **** *     <th>Rule Class (Required/Advisory)</th>
 291:Generated_Source\PSoC6\pdl\drivers/peripheral/scb/cy_scb_i2c.h **** *     <th>Rule Description</th>
 292:Generated_Source\PSoC6\pdl\drivers/peripheral/scb/cy_scb_i2c.h **** *     <th>Description of Deviation(s)</th>
 293:Generated_Source\PSoC6\pdl\drivers/peripheral/scb/cy_scb_i2c.h **** *   </tr>
 294:Generated_Source\PSoC6\pdl\drivers/peripheral/scb/cy_scb_i2c.h **** *   <tr>
 295:Generated_Source\PSoC6\pdl\drivers/peripheral/scb/cy_scb_i2c.h **** *     <td>11.4</td>
 296:Generated_Source\PSoC6\pdl\drivers/peripheral/scb/cy_scb_i2c.h **** *     <td>A</td>
 297:Generated_Source\PSoC6\pdl\drivers/peripheral/scb/cy_scb_i2c.h **** *     <td>A cast should not be performed between a pointer to object type and
 298:Generated_Source\PSoC6\pdl\drivers/peripheral/scb/cy_scb_i2c.h **** *         a different pointer to object type.</td>
 299:Generated_Source\PSoC6\pdl\drivers/peripheral/scb/cy_scb_i2c.h **** *     <td>The functions \ref Cy_SCB_I2C_DeepSleepCallback and
 300:Generated_Source\PSoC6\pdl\drivers/peripheral/scb/cy_scb_i2c.h **** *         \ref Cy_SCB_I2C_HibernateCallback are callback of
 301:Generated_Source\PSoC6\pdl\drivers/peripheral/scb/cy_scb_i2c.h **** *         \ref cy_en_syspm_status_t type. The cast operation safety in these
 302:Generated_Source\PSoC6\pdl\drivers/peripheral/scb/cy_scb_i2c.h **** *         functions becomes the user's responsibility because pointers are
 303:Generated_Source\PSoC6\pdl\drivers/peripheral/scb/cy_scb_i2c.h **** *         initialized when callback is registered in SysPm driver.</td>
 304:Generated_Source\PSoC6\pdl\drivers/peripheral/scb/cy_scb_i2c.h **** *   </tr>
 305:Generated_Source\PSoC6\pdl\drivers/peripheral/scb/cy_scb_i2c.h **** *   <tr>
 306:Generated_Source\PSoC6\pdl\drivers/peripheral/scb/cy_scb_i2c.h **** *     <td>14.1</td>
 307:Generated_Source\PSoC6\pdl\drivers/peripheral/scb/cy_scb_i2c.h **** *     <td>R</td>
 308:Generated_Source\PSoC6\pdl\drivers/peripheral/scb/cy_scb_i2c.h **** *     <td>There shall be no unreachable code.</td>
 309:Generated_Source\PSoC6\pdl\drivers/peripheral/scb/cy_scb_i2c.h **** *     <td>The SCB block parameters can be a constant false or true depends on
 310:Generated_Source\PSoC6\pdl\drivers/peripheral/scb/cy_scb_i2c.h **** *         the selected device and cause code to be unreachable.</td>
 311:Generated_Source\PSoC6\pdl\drivers/peripheral/scb/cy_scb_i2c.h **** *   </tr>
 312:Generated_Source\PSoC6\pdl\drivers/peripheral/scb/cy_scb_i2c.h **** *   <tr>
 313:Generated_Source\PSoC6\pdl\drivers/peripheral/scb/cy_scb_i2c.h **** *     <td>13.7</td>
 314:Generated_Source\PSoC6\pdl\drivers/peripheral/scb/cy_scb_i2c.h **** *     <td>R</td>
 315:Generated_Source\PSoC6\pdl\drivers/peripheral/scb/cy_scb_i2c.h **** *     <td>Boolean operations whose results are invariant shall not be
 316:Generated_Source\PSoC6\pdl\drivers/peripheral/scb/cy_scb_i2c.h **** *         permitted.</td>
 317:Generated_Source\PSoC6\pdl\drivers/peripheral/scb/cy_scb_i2c.h **** *     <td>
 318:Generated_Source\PSoC6\pdl\drivers/peripheral/scb/cy_scb_i2c.h **** *         * The SCB block parameters can be a constant false or true depends on
 319:Generated_Source\PSoC6\pdl\drivers/peripheral/scb/cy_scb_i2c.h **** *         the selected device and cause this violation.
 320:Generated_Source\PSoC6\pdl\drivers/peripheral/scb/cy_scb_i2c.h **** *         * The same condition check is executed before and after callback is
 321:Generated_Source\PSoC6\pdl\drivers/peripheral/scb/cy_scb_i2c.h **** *         called because after the callback returns, the condition might be not
 322:Generated_Source\PSoC6\pdl\drivers/peripheral/scb/cy_scb_i2c.h **** *         true any more.</td>
 323:Generated_Source\PSoC6\pdl\drivers/peripheral/scb/cy_scb_i2c.h **** *   </tr>
 324:Generated_Source\PSoC6\pdl\drivers/peripheral/scb/cy_scb_i2c.h **** *   <tr>
 325:Generated_Source\PSoC6\pdl\drivers/peripheral/scb/cy_scb_i2c.h **** *     <td>14.2</td>
 326:Generated_Source\PSoC6\pdl\drivers/peripheral/scb/cy_scb_i2c.h **** *     <td>R</td>
 327:Generated_Source\PSoC6\pdl\drivers/peripheral/scb/cy_scb_i2c.h **** *     <td>All non-null statements shall either: a) have at least one side-effect
 328:Generated_Source\PSoC6\pdl\drivers/peripheral/scb/cy_scb_i2c.h **** *         however executed, or b) cause control flow to change.</td>
 329:Generated_Source\PSoC6\pdl\drivers/peripheral/scb/cy_scb_i2c.h **** *     <td>The unused function parameters are cast to void. This statement
 330:Generated_Source\PSoC6\pdl\drivers/peripheral/scb/cy_scb_i2c.h **** *         has no side-effect and is used to suppress a compiler warning.</td>
 331:Generated_Source\PSoC6\pdl\drivers/peripheral/scb/cy_scb_i2c.h **** *   </tr>
 332:Generated_Source\PSoC6\pdl\drivers/peripheral/scb/cy_scb_i2c.h **** *   <tr>
 333:Generated_Source\PSoC6\pdl\drivers/peripheral/scb/cy_scb_i2c.h **** *     <td>14.7</td>
 334:Generated_Source\PSoC6\pdl\drivers/peripheral/scb/cy_scb_i2c.h **** *     <td>R</td>
 335:Generated_Source\PSoC6\pdl\drivers/peripheral/scb/cy_scb_i2c.h **** *     <td>A function shall have a single point of exit at the end of the
 336:Generated_Source\PSoC6\pdl\drivers/peripheral/scb/cy_scb_i2c.h **** *         function.</td>
 337:Generated_Source\PSoC6\pdl\drivers/peripheral/scb/cy_scb_i2c.h **** *     <td>The functions can return from several points. This is done to improve
ARM GAS  C:\Users\Mathieu\AppData\Local\Temp\ccJNHpye.s 			page 24


 338:Generated_Source\PSoC6\pdl\drivers/peripheral/scb/cy_scb_i2c.h **** *         code clarity when returning error status code if input parameters
 339:Generated_Source\PSoC6\pdl\drivers/peripheral/scb/cy_scb_i2c.h **** *         validation fails.</td>
 340:Generated_Source\PSoC6\pdl\drivers/peripheral/scb/cy_scb_i2c.h **** *   </tr>
 341:Generated_Source\PSoC6\pdl\drivers/peripheral/scb/cy_scb_i2c.h **** * </table>
 342:Generated_Source\PSoC6\pdl\drivers/peripheral/scb/cy_scb_i2c.h **** *
 343:Generated_Source\PSoC6\pdl\drivers/peripheral/scb/cy_scb_i2c.h **** * \section group_scb_i2c_changelog Changelog
 344:Generated_Source\PSoC6\pdl\drivers/peripheral/scb/cy_scb_i2c.h **** * <table class="doxtable">
 345:Generated_Source\PSoC6\pdl\drivers/peripheral/scb/cy_scb_i2c.h **** *   <tr><th>Version</th><th>Changes</th><th>Reason for Change</th></tr>
 346:Generated_Source\PSoC6\pdl\drivers/peripheral/scb/cy_scb_i2c.h **** *   <tr>
 347:Generated_Source\PSoC6\pdl\drivers/peripheral/scb/cy_scb_i2c.h **** *     <td rowspan="4"> 2.20</td>
 348:Generated_Source\PSoC6\pdl\drivers/peripheral/scb/cy_scb_i2c.h **** *     <td>Flattened the organization of the driver source code into the single 
 349:Generated_Source\PSoC6\pdl\drivers/peripheral/scb/cy_scb_i2c.h **** *         source directory and the single include directory.
 350:Generated_Source\PSoC6\pdl\drivers/peripheral/scb/cy_scb_i2c.h **** *     </td>
 351:Generated_Source\PSoC6\pdl\drivers/peripheral/scb/cy_scb_i2c.h **** *     <td>Driver library directory-structure simplification.</td>
 352:Generated_Source\PSoC6\pdl\drivers/peripheral/scb/cy_scb_i2c.h **** *   </tr>
 353:Generated_Source\PSoC6\pdl\drivers/peripheral/scb/cy_scb_i2c.h **** *   <tr>
 354:Generated_Source\PSoC6\pdl\drivers/peripheral/scb/cy_scb_i2c.h **** *     <td>Added the enableDigitalFilter, highPhaseDutyCycle and lowPhaseDutyCycle 
 355:Generated_Source\PSoC6\pdl\drivers/peripheral/scb/cy_scb_i2c.h **** *         fields to the \ref cy_stc_scb_i2c_config_t configuration structure.
 356:Generated_Source\PSoC6\pdl\drivers/peripheral/scb/cy_scb_i2c.h **** *     </td>
 357:Generated_Source\PSoC6\pdl\drivers/peripheral/scb/cy_scb_i2c.h **** *     <td>Added the I2C master data rate configuration using the configuration structure.
 358:Generated_Source\PSoC6\pdl\drivers/peripheral/scb/cy_scb_i2c.h **** *     </td>
 359:Generated_Source\PSoC6\pdl\drivers/peripheral/scb/cy_scb_i2c.h **** *   </tr>
 360:Generated_Source\PSoC6\pdl\drivers/peripheral/scb/cy_scb_i2c.h **** *   <tr>
 361:Generated_Source\PSoC6\pdl\drivers/peripheral/scb/cy_scb_i2c.h **** *     <td>Fixed the \ref Cy_SCB_I2C_SetDataRate function to properly configure data rates 
 362:Generated_Source\PSoC6\pdl\drivers/peripheral/scb/cy_scb_i2c.h **** *         greater than 400 kbps in Master and Master-Slave modes. \n
 363:Generated_Source\PSoC6\pdl\drivers/peripheral/scb/cy_scb_i2c.h **** *         Added verification that clk_scb is within the valid range for the desired data rate.
 364:Generated_Source\PSoC6\pdl\drivers/peripheral/scb/cy_scb_i2c.h **** *     </td>     
 365:Generated_Source\PSoC6\pdl\drivers/peripheral/scb/cy_scb_i2c.h **** *     <td>The analog filter was enabled for all data rates in Master and Master-Slave modes. 
 366:Generated_Source\PSoC6\pdl\drivers/peripheral/scb/cy_scb_i2c.h **** *         This prevents reaching the maximum supported data rate of 1000 kbps which requires a digi
 367:Generated_Source\PSoC6\pdl\drivers/peripheral/scb/cy_scb_i2c.h **** *     </td>
 368:Generated_Source\PSoC6\pdl\drivers/peripheral/scb/cy_scb_i2c.h **** *   </tr>
 369:Generated_Source\PSoC6\pdl\drivers/peripheral/scb/cy_scb_i2c.h **** *   <tr>
 370:Generated_Source\PSoC6\pdl\drivers/peripheral/scb/cy_scb_i2c.h **** *     <td>Added register access layer. Use register access macros instead
 371:Generated_Source\PSoC6\pdl\drivers/peripheral/scb/cy_scb_i2c.h **** *         of direct register access using dereferenced pointers.</td>
 372:Generated_Source\PSoC6\pdl\drivers/peripheral/scb/cy_scb_i2c.h **** *     <td>Makes register access device-independent, so that the PDL does 
 373:Generated_Source\PSoC6\pdl\drivers/peripheral/scb/cy_scb_i2c.h **** *         not need to be recompiled for each supported part number.</td>
 374:Generated_Source\PSoC6\pdl\drivers/peripheral/scb/cy_scb_i2c.h **** *   </tr>
 375:Generated_Source\PSoC6\pdl\drivers/peripheral/scb/cy_scb_i2c.h **** *   <tr>
 376:Generated_Source\PSoC6\pdl\drivers/peripheral/scb/cy_scb_i2c.h **** *     <td rowspan="4"> 2.10</td>
 377:Generated_Source\PSoC6\pdl\drivers/peripheral/scb/cy_scb_i2c.h **** *     <td>Fixed the ReStart condition generation sequence for a write
 378:Generated_Source\PSoC6\pdl\drivers/peripheral/scb/cy_scb_i2c.h **** *         transaction in the \ref Cy_SCB_I2C_MasterWrite function.</td>
 379:Generated_Source\PSoC6\pdl\drivers/peripheral/scb/cy_scb_i2c.h **** *     <td>The driver can notify about a zero length write transaction completion 
 380:Generated_Source\PSoC6\pdl\drivers/peripheral/scb/cy_scb_i2c.h **** *         before the address byte is sent if the \ref Cy_SCB_I2C_MasterWrite 
 381:Generated_Source\PSoC6\pdl\drivers/peripheral/scb/cy_scb_i2c.h **** *         function execution was interrupted between setting the restart 
 382:Generated_Source\PSoC6\pdl\drivers/peripheral/scb/cy_scb_i2c.h **** *         generation command and writing the address byte into the TX FIFO.</td>
 383:Generated_Source\PSoC6\pdl\drivers/peripheral/scb/cy_scb_i2c.h **** *   </tr>
 384:Generated_Source\PSoC6\pdl\drivers/peripheral/scb/cy_scb_i2c.h **** *   <tr>
 385:Generated_Source\PSoC6\pdl\drivers/peripheral/scb/cy_scb_i2c.h **** *     <td>Added the slave- and master-specific interrupt functions:
 386:Generated_Source\PSoC6\pdl\drivers/peripheral/scb/cy_scb_i2c.h **** *         \ref Cy_SCB_I2C_SlaveInterrupt and \ref Cy_SCB_I2C_MasterInterrupt.
 387:Generated_Source\PSoC6\pdl\drivers/peripheral/scb/cy_scb_i2c.h **** *     </td>
 388:Generated_Source\PSoC6\pdl\drivers/peripheral/scb/cy_scb_i2c.h **** *     <td>Improved the interrupt configuration options for the I2C slave and
 389:Generated_Source\PSoC6\pdl\drivers/peripheral/scb/cy_scb_i2c.h **** *         master mode configurations.</td>
 390:Generated_Source\PSoC6\pdl\drivers/peripheral/scb/cy_scb_i2c.h **** *   </tr>
 391:Generated_Source\PSoC6\pdl\drivers/peripheral/scb/cy_scb_i2c.h **** *   <tr>
 392:Generated_Source\PSoC6\pdl\drivers/peripheral/scb/cy_scb_i2c.h **** *     <td>Updated the Start condition generation sequence in the \ref 
 393:Generated_Source\PSoC6\pdl\drivers/peripheral/scb/cy_scb_i2c.h **** *         Cy_SCB_I2C_MasterWrite and \ref Cy_SCB_I2C_MasterRead.</td>
 394:Generated_Source\PSoC6\pdl\drivers/peripheral/scb/cy_scb_i2c.h **** *     <td></td>
ARM GAS  C:\Users\Mathieu\AppData\Local\Temp\ccJNHpye.s 			page 25


 395:Generated_Source\PSoC6\pdl\drivers/peripheral/scb/cy_scb_i2c.h **** *   </tr>
 396:Generated_Source\PSoC6\pdl\drivers/peripheral/scb/cy_scb_i2c.h **** *   <tr>
 397:Generated_Source\PSoC6\pdl\drivers/peripheral/scb/cy_scb_i2c.h **** *     <td>Updated the ReStart condition generation sequence for a write
 398:Generated_Source\PSoC6\pdl\drivers/peripheral/scb/cy_scb_i2c.h **** *         transaction in the \ref Cy_SCB_I2C_MasterSendReStart function.</td>
 399:Generated_Source\PSoC6\pdl\drivers/peripheral/scb/cy_scb_i2c.h **** *     <td></td>
 400:Generated_Source\PSoC6\pdl\drivers/peripheral/scb/cy_scb_i2c.h **** *   </tr>
 401:Generated_Source\PSoC6\pdl\drivers/peripheral/scb/cy_scb_i2c.h **** *   <tr>
 402:Generated_Source\PSoC6\pdl\drivers/peripheral/scb/cy_scb_i2c.h **** *     <td rowspan="5"> 2.0</td>
 403:Generated_Source\PSoC6\pdl\drivers/peripheral/scb/cy_scb_i2c.h **** *     <td>Fixed the \ref Cy_SCB_I2C_MasterSendReStart function to properly 
 404:Generated_Source\PSoC6\pdl\drivers/peripheral/scb/cy_scb_i2c.h **** *         generate the ReStart condition when the previous transaction was 
 405:Generated_Source\PSoC6\pdl\drivers/peripheral/scb/cy_scb_i2c.h **** *         a write.</td>
 406:Generated_Source\PSoC6\pdl\drivers/peripheral/scb/cy_scb_i2c.h **** *     <td>The master interpreted the address byte written into the TX FIFO as a
 407:Generated_Source\PSoC6\pdl\drivers/peripheral/scb/cy_scb_i2c.h **** *         data byte and continued a write transaction. The ReStart condition was
 408:Generated_Source\PSoC6\pdl\drivers/peripheral/scb/cy_scb_i2c.h **** *         generated after the master completed transferring the data byte.
 409:Generated_Source\PSoC6\pdl\drivers/peripheral/scb/cy_scb_i2c.h **** *         The SCL line was stretched by the master waiting for the address byte
 410:Generated_Source\PSoC6\pdl\drivers/peripheral/scb/cy_scb_i2c.h **** *         to be written into the TX FIFO after the ReStart condition generation.
 411:Generated_Source\PSoC6\pdl\drivers/peripheral/scb/cy_scb_i2c.h **** *         The following timeout detection released the bus from the master
 412:Generated_Source\PSoC6\pdl\drivers/peripheral/scb/cy_scb_i2c.h **** *         control.</td>
 413:Generated_Source\PSoC6\pdl\drivers/peripheral/scb/cy_scb_i2c.h **** *   </tr>
 414:Generated_Source\PSoC6\pdl\drivers/peripheral/scb/cy_scb_i2c.h **** *   <tr>
 415:Generated_Source\PSoC6\pdl\drivers/peripheral/scb/cy_scb_i2c.h **** *     <td>Fixed the slave operation after the address byte was NACKed by the
 416:Generated_Source\PSoC6\pdl\drivers/peripheral/scb/cy_scb_i2c.h **** *         firmware.</td>
 417:Generated_Source\PSoC6\pdl\drivers/peripheral/scb/cy_scb_i2c.h **** *     <td>The observed slave operation failure depends on whether Level 2 assert
 418:Generated_Source\PSoC6\pdl\drivers/peripheral/scb/cy_scb_i2c.h **** *         is enabled or not. Enabled: the device stuck in the fault handler due
 419:Generated_Source\PSoC6\pdl\drivers/peripheral/scb/cy_scb_i2c.h **** *         to the assert assignment in the \ref Cy_SCB_I2C_Interrupt. Disabled: 
 420:Generated_Source\PSoC6\pdl\drivers/peripheral/scb/cy_scb_i2c.h **** *         the slave sets the transaction completion status and notifies on the 
 421:Generated_Source\PSoC6\pdl\drivers/peripheral/scb/cy_scb_i2c.h **** *         transaction completion event after the address was NACKed. The failure
 422:Generated_Source\PSoC6\pdl\drivers/peripheral/scb/cy_scb_i2c.h **** *         is observed only when the slave is configured to accept an address in 
 423:Generated_Source\PSoC6\pdl\drivers/peripheral/scb/cy_scb_i2c.h **** *         the RX FIFO.</td>
 424:Generated_Source\PSoC6\pdl\drivers/peripheral/scb/cy_scb_i2c.h **** *   </tr>
 425:Generated_Source\PSoC6\pdl\drivers/peripheral/scb/cy_scb_i2c.h **** *   <tr>
 426:Generated_Source\PSoC6\pdl\drivers/peripheral/scb/cy_scb_i2c.h **** *     <td>Added parameters validation for public API.</td>
 427:Generated_Source\PSoC6\pdl\drivers/peripheral/scb/cy_scb_i2c.h **** *     <td></td>
 428:Generated_Source\PSoC6\pdl\drivers/peripheral/scb/cy_scb_i2c.h **** *   </tr>
 429:Generated_Source\PSoC6\pdl\drivers/peripheral/scb/cy_scb_i2c.h **** *   <tr>
 430:Generated_Source\PSoC6\pdl\drivers/peripheral/scb/cy_scb_i2c.h **** *     <td>Replaced variables which have limited range of values with enumerated
 431:Generated_Source\PSoC6\pdl\drivers/peripheral/scb/cy_scb_i2c.h **** *         types.</td>
 432:Generated_Source\PSoC6\pdl\drivers/peripheral/scb/cy_scb_i2c.h **** *     <td></td>
 433:Generated_Source\PSoC6\pdl\drivers/peripheral/scb/cy_scb_i2c.h **** *   </tr>
 434:Generated_Source\PSoC6\pdl\drivers/peripheral/scb/cy_scb_i2c.h **** *   <tr>
 435:Generated_Source\PSoC6\pdl\drivers/peripheral/scb/cy_scb_i2c.h **** *     <td>Added missing "cy_cb_" to the callback function type names.</td>
 436:Generated_Source\PSoC6\pdl\drivers/peripheral/scb/cy_scb_i2c.h **** *     <td></td>
 437:Generated_Source\PSoC6\pdl\drivers/peripheral/scb/cy_scb_i2c.h **** *   </tr>
 438:Generated_Source\PSoC6\pdl\drivers/peripheral/scb/cy_scb_i2c.h **** *   <tr>
 439:Generated_Source\PSoC6\pdl\drivers/peripheral/scb/cy_scb_i2c.h **** *     <td>1.0</td>
 440:Generated_Source\PSoC6\pdl\drivers/peripheral/scb/cy_scb_i2c.h **** *     <td>Initial version.</td>
 441:Generated_Source\PSoC6\pdl\drivers/peripheral/scb/cy_scb_i2c.h **** *     <td></td>
 442:Generated_Source\PSoC6\pdl\drivers/peripheral/scb/cy_scb_i2c.h **** *   </tr>
 443:Generated_Source\PSoC6\pdl\drivers/peripheral/scb/cy_scb_i2c.h **** * </table>
 444:Generated_Source\PSoC6\pdl\drivers/peripheral/scb/cy_scb_i2c.h **** *
 445:Generated_Source\PSoC6\pdl\drivers/peripheral/scb/cy_scb_i2c.h **** * \defgroup group_scb_i2c_macros Macros
 446:Generated_Source\PSoC6\pdl\drivers/peripheral/scb/cy_scb_i2c.h **** * \defgroup group_scb_i2c_functions Functions
 447:Generated_Source\PSoC6\pdl\drivers/peripheral/scb/cy_scb_i2c.h **** * \{
 448:Generated_Source\PSoC6\pdl\drivers/peripheral/scb/cy_scb_i2c.h **** * \defgroup group_scb_i2c_general_functions General
 449:Generated_Source\PSoC6\pdl\drivers/peripheral/scb/cy_scb_i2c.h **** * \defgroup group_scb_i2c_slave_functions Slave
 450:Generated_Source\PSoC6\pdl\drivers/peripheral/scb/cy_scb_i2c.h **** * \defgroup group_scb_i2c_master_high_level_functions Master High-Level
 451:Generated_Source\PSoC6\pdl\drivers/peripheral/scb/cy_scb_i2c.h **** * \defgroup group_scb_i2c_master_low_level_functions Master Low-Level
ARM GAS  C:\Users\Mathieu\AppData\Local\Temp\ccJNHpye.s 			page 26


 452:Generated_Source\PSoC6\pdl\drivers/peripheral/scb/cy_scb_i2c.h **** * \defgroup group_scb_i2c_interrupt_functions Interrupt
 453:Generated_Source\PSoC6\pdl\drivers/peripheral/scb/cy_scb_i2c.h **** * \defgroup group_scb_i2c_low_power_functions Low Power Callbacks
 454:Generated_Source\PSoC6\pdl\drivers/peripheral/scb/cy_scb_i2c.h **** * \}
 455:Generated_Source\PSoC6\pdl\drivers/peripheral/scb/cy_scb_i2c.h **** * \defgroup group_scb_i2c_data_structures Data Structures
 456:Generated_Source\PSoC6\pdl\drivers/peripheral/scb/cy_scb_i2c.h **** * \defgroup group_scb_i2c_enums Enumerated Types
 457:Generated_Source\PSoC6\pdl\drivers/peripheral/scb/cy_scb_i2c.h **** */
 458:Generated_Source\PSoC6\pdl\drivers/peripheral/scb/cy_scb_i2c.h **** 
 459:Generated_Source\PSoC6\pdl\drivers/peripheral/scb/cy_scb_i2c.h **** #if !defined(CY_SCB_I2C_H)
 460:Generated_Source\PSoC6\pdl\drivers/peripheral/scb/cy_scb_i2c.h **** #define CY_SCB_I2C_H
 461:Generated_Source\PSoC6\pdl\drivers/peripheral/scb/cy_scb_i2c.h **** 
 462:Generated_Source\PSoC6\pdl\drivers/peripheral/scb/cy_scb_i2c.h **** #include "cy_scb_common.h"
 463:Generated_Source\PSoC6\pdl\drivers/peripheral/scb/cy_scb_i2c.h **** 
 464:Generated_Source\PSoC6\pdl\drivers/peripheral/scb/cy_scb_i2c.h **** #if defined(__cplusplus)
 465:Generated_Source\PSoC6\pdl\drivers/peripheral/scb/cy_scb_i2c.h **** extern "C" {
 466:Generated_Source\PSoC6\pdl\drivers/peripheral/scb/cy_scb_i2c.h **** #endif
 467:Generated_Source\PSoC6\pdl\drivers/peripheral/scb/cy_scb_i2c.h **** 
 468:Generated_Source\PSoC6\pdl\drivers/peripheral/scb/cy_scb_i2c.h **** /*******************************************************************************
 469:Generated_Source\PSoC6\pdl\drivers/peripheral/scb/cy_scb_i2c.h **** *                            Enumerated Types
 470:Generated_Source\PSoC6\pdl\drivers/peripheral/scb/cy_scb_i2c.h **** *******************************************************************************/
 471:Generated_Source\PSoC6\pdl\drivers/peripheral/scb/cy_scb_i2c.h **** 
 472:Generated_Source\PSoC6\pdl\drivers/peripheral/scb/cy_scb_i2c.h **** /**
 473:Generated_Source\PSoC6\pdl\drivers/peripheral/scb/cy_scb_i2c.h **** * \addtogroup group_scb_i2c_enums
 474:Generated_Source\PSoC6\pdl\drivers/peripheral/scb/cy_scb_i2c.h **** * \{
 475:Generated_Source\PSoC6\pdl\drivers/peripheral/scb/cy_scb_i2c.h **** */
 476:Generated_Source\PSoC6\pdl\drivers/peripheral/scb/cy_scb_i2c.h **** 
 477:Generated_Source\PSoC6\pdl\drivers/peripheral/scb/cy_scb_i2c.h **** /** I2C status codes */
 478:Generated_Source\PSoC6\pdl\drivers/peripheral/scb/cy_scb_i2c.h **** typedef enum
 479:Generated_Source\PSoC6\pdl\drivers/peripheral/scb/cy_scb_i2c.h **** {
 480:Generated_Source\PSoC6\pdl\drivers/peripheral/scb/cy_scb_i2c.h ****     /** Operation completed successfully */
 481:Generated_Source\PSoC6\pdl\drivers/peripheral/scb/cy_scb_i2c.h ****     CY_SCB_I2C_SUCCESS = 0U,
 482:Generated_Source\PSoC6\pdl\drivers/peripheral/scb/cy_scb_i2c.h **** 
 483:Generated_Source\PSoC6\pdl\drivers/peripheral/scb/cy_scb_i2c.h ****     /** One or more of input parameters are invalid */
 484:Generated_Source\PSoC6\pdl\drivers/peripheral/scb/cy_scb_i2c.h ****     CY_SCB_I2C_BAD_PARAM = (CY_SCB_ID | CY_PDL_STATUS_ERROR | CY_SCB_I2C_ID | 1U),
 485:Generated_Source\PSoC6\pdl\drivers/peripheral/scb/cy_scb_i2c.h **** 
 486:Generated_Source\PSoC6\pdl\drivers/peripheral/scb/cy_scb_i2c.h ****     /**
 487:Generated_Source\PSoC6\pdl\drivers/peripheral/scb/cy_scb_i2c.h ****     * The master is not ready to start a new transaction.
 488:Generated_Source\PSoC6\pdl\drivers/peripheral/scb/cy_scb_i2c.h ****     * Either the master is still processing a previous transaction or in the
 489:Generated_Source\PSoC6\pdl\drivers/peripheral/scb/cy_scb_i2c.h ****     * master-slave mode, the slave operation is in progress.
 490:Generated_Source\PSoC6\pdl\drivers/peripheral/scb/cy_scb_i2c.h ****     */
 491:Generated_Source\PSoC6\pdl\drivers/peripheral/scb/cy_scb_i2c.h ****     CY_SCB_I2C_MASTER_NOT_READY = (CY_SCB_ID | CY_PDL_STATUS_ERROR | CY_SCB_I2C_ID | 2U),
 492:Generated_Source\PSoC6\pdl\drivers/peripheral/scb/cy_scb_i2c.h **** 
 493:Generated_Source\PSoC6\pdl\drivers/peripheral/scb/cy_scb_i2c.h ****     /**
 494:Generated_Source\PSoC6\pdl\drivers/peripheral/scb/cy_scb_i2c.h ****     * The master operation timed out before completing. Applicable only for
 495:Generated_Source\PSoC6\pdl\drivers/peripheral/scb/cy_scb_i2c.h ****     * the \ref group_scb_i2c_master_low_level_functions functions.
 496:Generated_Source\PSoC6\pdl\drivers/peripheral/scb/cy_scb_i2c.h ****     */
 497:Generated_Source\PSoC6\pdl\drivers/peripheral/scb/cy_scb_i2c.h ****     CY_SCB_I2C_MASTER_MANUAL_TIMEOUT = (CY_SCB_ID | CY_PDL_STATUS_ERROR | CY_SCB_I2C_ID | 3U),
 498:Generated_Source\PSoC6\pdl\drivers/peripheral/scb/cy_scb_i2c.h **** 
 499:Generated_Source\PSoC6\pdl\drivers/peripheral/scb/cy_scb_i2c.h ****     /** The slave NACKed the address. Applicable only for the
 500:Generated_Source\PSoC6\pdl\drivers/peripheral/scb/cy_scb_i2c.h ****     * \ref group_scb_i2c_master_low_level_functions functions.
 501:Generated_Source\PSoC6\pdl\drivers/peripheral/scb/cy_scb_i2c.h ****     */
 502:Generated_Source\PSoC6\pdl\drivers/peripheral/scb/cy_scb_i2c.h ****     CY_SCB_I2C_MASTER_MANUAL_ADDR_NAK = (CY_SCB_ID | CY_PDL_STATUS_ERROR | CY_SCB_I2C_ID | 4U),
 503:Generated_Source\PSoC6\pdl\drivers/peripheral/scb/cy_scb_i2c.h **** 
 504:Generated_Source\PSoC6\pdl\drivers/peripheral/scb/cy_scb_i2c.h ****     /** The slave NACKed the data byte.  Applicable only for the
 505:Generated_Source\PSoC6\pdl\drivers/peripheral/scb/cy_scb_i2c.h ****     * \ref group_scb_i2c_master_low_level_functions.
 506:Generated_Source\PSoC6\pdl\drivers/peripheral/scb/cy_scb_i2c.h ****     */
 507:Generated_Source\PSoC6\pdl\drivers/peripheral/scb/cy_scb_i2c.h ****     CY_SCB_I2C_MASTER_MANUAL_NAK = (CY_SCB_ID | CY_PDL_STATUS_ERROR | CY_SCB_I2C_ID | 5U),
 508:Generated_Source\PSoC6\pdl\drivers/peripheral/scb/cy_scb_i2c.h **** 
ARM GAS  C:\Users\Mathieu\AppData\Local\Temp\ccJNHpye.s 			page 27


 509:Generated_Source\PSoC6\pdl\drivers/peripheral/scb/cy_scb_i2c.h ****     /**
 510:Generated_Source\PSoC6\pdl\drivers/peripheral/scb/cy_scb_i2c.h ****     * The master lost arbitration, the transaction was aborted. Applicable only
 511:Generated_Source\PSoC6\pdl\drivers/peripheral/scb/cy_scb_i2c.h ****     * for the \ref group_scb_i2c_master_low_level_functions functions.
 512:Generated_Source\PSoC6\pdl\drivers/peripheral/scb/cy_scb_i2c.h ****     */
 513:Generated_Source\PSoC6\pdl\drivers/peripheral/scb/cy_scb_i2c.h ****     CY_SCB_I2C_MASTER_MANUAL_ARB_LOST = (CY_SCB_ID | CY_PDL_STATUS_ERROR | CY_SCB_I2C_ID | 6U),
 514:Generated_Source\PSoC6\pdl\drivers/peripheral/scb/cy_scb_i2c.h **** 
 515:Generated_Source\PSoC6\pdl\drivers/peripheral/scb/cy_scb_i2c.h ****     /**
 516:Generated_Source\PSoC6\pdl\drivers/peripheral/scb/cy_scb_i2c.h ****     * The master detected an erroneous start or stop, the transaction was
 517:Generated_Source\PSoC6\pdl\drivers/peripheral/scb/cy_scb_i2c.h ****     * aborted. Applicable only for the
 518:Generated_Source\PSoC6\pdl\drivers/peripheral/scb/cy_scb_i2c.h ****     * \ref group_scb_i2c_master_low_level_functions functions.
 519:Generated_Source\PSoC6\pdl\drivers/peripheral/scb/cy_scb_i2c.h ****     */
 520:Generated_Source\PSoC6\pdl\drivers/peripheral/scb/cy_scb_i2c.h ****     CY_SCB_I2C_MASTER_MANUAL_BUS_ERR = (CY_SCB_ID | CY_PDL_STATUS_ERROR | CY_SCB_I2C_ID | 7U),
 521:Generated_Source\PSoC6\pdl\drivers/peripheral/scb/cy_scb_i2c.h **** 
 522:Generated_Source\PSoC6\pdl\drivers/peripheral/scb/cy_scb_i2c.h ****     /**
 523:Generated_Source\PSoC6\pdl\drivers/peripheral/scb/cy_scb_i2c.h ****     * The master transaction was aborted and the slave transaction is on-going
 524:Generated_Source\PSoC6\pdl\drivers/peripheral/scb/cy_scb_i2c.h ****     * because the slave was addressed before the master generated a start.
 525:Generated_Source\PSoC6\pdl\drivers/peripheral/scb/cy_scb_i2c.h ****     * Applicable only for the \ref group_scb_i2c_master_low_level_functions
 526:Generated_Source\PSoC6\pdl\drivers/peripheral/scb/cy_scb_i2c.h ****     * functions.
 527:Generated_Source\PSoC6\pdl\drivers/peripheral/scb/cy_scb_i2c.h ****     */
 528:Generated_Source\PSoC6\pdl\drivers/peripheral/scb/cy_scb_i2c.h ****     CY_SCB_I2C_MASTER_MANUAL_ABORT_START = (CY_SCB_ID | CY_PDL_STATUS_ERROR | CY_SCB_I2C_ID | 8U)
 529:Generated_Source\PSoC6\pdl\drivers/peripheral/scb/cy_scb_i2c.h **** } cy_en_scb_i2c_status_t;
 530:Generated_Source\PSoC6\pdl\drivers/peripheral/scb/cy_scb_i2c.h **** 
 531:Generated_Source\PSoC6\pdl\drivers/peripheral/scb/cy_scb_i2c.h **** /** I2C Operation Modes */
 532:Generated_Source\PSoC6\pdl\drivers/peripheral/scb/cy_scb_i2c.h **** typedef enum
 533:Generated_Source\PSoC6\pdl\drivers/peripheral/scb/cy_scb_i2c.h **** {
 534:Generated_Source\PSoC6\pdl\drivers/peripheral/scb/cy_scb_i2c.h ****     CY_SCB_I2C_SLAVE        = 1U,    /**< Configures SCB for I2C Slave operation */
 535:Generated_Source\PSoC6\pdl\drivers/peripheral/scb/cy_scb_i2c.h ****     CY_SCB_I2C_MASTER       = 2U,    /**< Configures SCB for I2C Master operation */
 536:Generated_Source\PSoC6\pdl\drivers/peripheral/scb/cy_scb_i2c.h ****     CY_SCB_I2C_MASTER_SLAVE = 3U,    /**< Configures SCB for I2C Master-Slave operation */
 537:Generated_Source\PSoC6\pdl\drivers/peripheral/scb/cy_scb_i2c.h **** } cy_en_scb_i2c_mode_t;
 538:Generated_Source\PSoC6\pdl\drivers/peripheral/scb/cy_scb_i2c.h **** 
 539:Generated_Source\PSoC6\pdl\drivers/peripheral/scb/cy_scb_i2c.h **** /** I2C Transaction Direction */
 540:Generated_Source\PSoC6\pdl\drivers/peripheral/scb/cy_scb_i2c.h **** typedef enum
 541:Generated_Source\PSoC6\pdl\drivers/peripheral/scb/cy_scb_i2c.h **** {
 542:Generated_Source\PSoC6\pdl\drivers/peripheral/scb/cy_scb_i2c.h ****     CY_SCB_I2C_WRITE_XFER = 0U,  /**< Current transaction is Write */
 543:Generated_Source\PSoC6\pdl\drivers/peripheral/scb/cy_scb_i2c.h ****     CY_SCB_I2C_READ_XFER  = 1U,  /**< Current transaction is Read */
 544:Generated_Source\PSoC6\pdl\drivers/peripheral/scb/cy_scb_i2c.h **** } cy_en_scb_i2c_direction_t;
 545:Generated_Source\PSoC6\pdl\drivers/peripheral/scb/cy_scb_i2c.h **** 
 546:Generated_Source\PSoC6\pdl\drivers/peripheral/scb/cy_scb_i2c.h **** /** I2C Command ACK / NAK */
 547:Generated_Source\PSoC6\pdl\drivers/peripheral/scb/cy_scb_i2c.h **** typedef enum
 548:Generated_Source\PSoC6\pdl\drivers/peripheral/scb/cy_scb_i2c.h **** {
 549:Generated_Source\PSoC6\pdl\drivers/peripheral/scb/cy_scb_i2c.h ****     CY_SCB_I2C_ACK,     /**< Send ACK to current byte */
 550:Generated_Source\PSoC6\pdl\drivers/peripheral/scb/cy_scb_i2c.h ****     CY_SCB_I2C_NAK,     /**< Send NAK to current byte */
 551:Generated_Source\PSoC6\pdl\drivers/peripheral/scb/cy_scb_i2c.h **** } cy_en_scb_i2c_command_t;
 552:Generated_Source\PSoC6\pdl\drivers/peripheral/scb/cy_scb_i2c.h **** /** \} group_scb_i2c_enums */
 553:Generated_Source\PSoC6\pdl\drivers/peripheral/scb/cy_scb_i2c.h **** 
 554:Generated_Source\PSoC6\pdl\drivers/peripheral/scb/cy_scb_i2c.h **** 
 555:Generated_Source\PSoC6\pdl\drivers/peripheral/scb/cy_scb_i2c.h **** /*******************************************************************************
 556:Generated_Source\PSoC6\pdl\drivers/peripheral/scb/cy_scb_i2c.h **** *                              Type Definitions
 557:Generated_Source\PSoC6\pdl\drivers/peripheral/scb/cy_scb_i2c.h **** *******************************************************************************/
 558:Generated_Source\PSoC6\pdl\drivers/peripheral/scb/cy_scb_i2c.h **** 
 559:Generated_Source\PSoC6\pdl\drivers/peripheral/scb/cy_scb_i2c.h **** /**
 560:Generated_Source\PSoC6\pdl\drivers/peripheral/scb/cy_scb_i2c.h **** * \addtogroup group_scb_i2c_data_structures
 561:Generated_Source\PSoC6\pdl\drivers/peripheral/scb/cy_scb_i2c.h **** * \{
 562:Generated_Source\PSoC6\pdl\drivers/peripheral/scb/cy_scb_i2c.h **** */
 563:Generated_Source\PSoC6\pdl\drivers/peripheral/scb/cy_scb_i2c.h **** 
 564:Generated_Source\PSoC6\pdl\drivers/peripheral/scb/cy_scb_i2c.h **** /**
 565:Generated_Source\PSoC6\pdl\drivers/peripheral/scb/cy_scb_i2c.h **** * Provides the typedef for the callback function called in the
ARM GAS  C:\Users\Mathieu\AppData\Local\Temp\ccJNHpye.s 			page 28


 566:Generated_Source\PSoC6\pdl\drivers/peripheral/scb/cy_scb_i2c.h **** * \ref Cy_SCB_I2C_Interrupt to notify the user about occurrences of
 567:Generated_Source\PSoC6\pdl\drivers/peripheral/scb/cy_scb_i2c.h **** * \ref group_scb_i2c_macros_callback_events.
 568:Generated_Source\PSoC6\pdl\drivers/peripheral/scb/cy_scb_i2c.h **** */
 569:Generated_Source\PSoC6\pdl\drivers/peripheral/scb/cy_scb_i2c.h **** typedef void (* cy_cb_scb_i2c_handle_events_t)(uint32_t event);
 570:Generated_Source\PSoC6\pdl\drivers/peripheral/scb/cy_scb_i2c.h **** 
 571:Generated_Source\PSoC6\pdl\drivers/peripheral/scb/cy_scb_i2c.h **** /**
 572:Generated_Source\PSoC6\pdl\drivers/peripheral/scb/cy_scb_i2c.h **** * Provides the typedef for the callback function called in the
 573:Generated_Source\PSoC6\pdl\drivers/peripheral/scb/cy_scb_i2c.h **** * \ref Cy_SCB_I2C_Interrupt to notify the user about occurrences of
 574:Generated_Source\PSoC6\pdl\drivers/peripheral/scb/cy_scb_i2c.h **** * \ref group_scb_i2c_macros_addr_callback_events.
 575:Generated_Source\PSoC6\pdl\drivers/peripheral/scb/cy_scb_i2c.h **** * This callback must return a decision to ACK (continue transaction) or
 576:Generated_Source\PSoC6\pdl\drivers/peripheral/scb/cy_scb_i2c.h **** * NAK (end transaction) the received address.
 577:Generated_Source\PSoC6\pdl\drivers/peripheral/scb/cy_scb_i2c.h **** * Note if the slave is configured to accept an address in RX FIFO, it must read
 578:Generated_Source\PSoC6\pdl\drivers/peripheral/scb/cy_scb_i2c.h **** * from it using the \ref Cy_SCB_ReadRxFifo function.
 579:Generated_Source\PSoC6\pdl\drivers/peripheral/scb/cy_scb_i2c.h **** */
 580:Generated_Source\PSoC6\pdl\drivers/peripheral/scb/cy_scb_i2c.h **** typedef cy_en_scb_i2c_command_t (* cy_cb_scb_i2c_handle_addr_t)(uint32_t event);
 581:Generated_Source\PSoC6\pdl\drivers/peripheral/scb/cy_scb_i2c.h **** 
 582:Generated_Source\PSoC6\pdl\drivers/peripheral/scb/cy_scb_i2c.h **** /** I2C configuration structure */
 583:Generated_Source\PSoC6\pdl\drivers/peripheral/scb/cy_scb_i2c.h **** typedef struct cy_stc_scb_i2c_config
 584:Generated_Source\PSoC6\pdl\drivers/peripheral/scb/cy_scb_i2c.h **** {
 585:Generated_Source\PSoC6\pdl\drivers/peripheral/scb/cy_scb_i2c.h ****     /** Specifies the mode of operation */
 586:Generated_Source\PSoC6\pdl\drivers/peripheral/scb/cy_scb_i2c.h ****     cy_en_scb_i2c_mode_t i2cMode;
 587:Generated_Source\PSoC6\pdl\drivers/peripheral/scb/cy_scb_i2c.h **** 
 588:Generated_Source\PSoC6\pdl\drivers/peripheral/scb/cy_scb_i2c.h ****     /**
 589:Generated_Source\PSoC6\pdl\drivers/peripheral/scb/cy_scb_i2c.h ****     * The SCB provides an RX FIFO in hardware (consult the selected device
 590:Generated_Source\PSoC6\pdl\drivers/peripheral/scb/cy_scb_i2c.h ****     * datasheet to get the actual FIFO size). The useRxFifo field defines
 591:Generated_Source\PSoC6\pdl\drivers/peripheral/scb/cy_scb_i2c.h ****     * how the driver firmware reads data from the RX FIFO:
 592:Generated_Source\PSoC6\pdl\drivers/peripheral/scb/cy_scb_i2c.h ****     * * If this option is enabled, the hardware is configured to automatically
 593:Generated_Source\PSoC6\pdl\drivers/peripheral/scb/cy_scb_i2c.h ****     *   ACK incoming data, and interrupt is enabled to take data out of the RX
 594:Generated_Source\PSoC6\pdl\drivers/peripheral/scb/cy_scb_i2c.h ****     *   FIFO when it has some number of bytes (typically, when it is half full).
 595:Generated_Source\PSoC6\pdl\drivers/peripheral/scb/cy_scb_i2c.h ****     * * If this option is disabled, the interrupt is enabled to take data out of
 596:Generated_Source\PSoC6\pdl\drivers/peripheral/scb/cy_scb_i2c.h ****     *   the RX FIFO when a byte is available. Also, hardware does not
 597:Generated_Source\PSoC6\pdl\drivers/peripheral/scb/cy_scb_i2c.h ****     *   automatically ACK the data. Firmware must tell the hardware to ACK
 598:Generated_Source\PSoC6\pdl\drivers/peripheral/scb/cy_scb_i2c.h ****     *   the byte (so each byte requires interrupt processing).
 599:Generated_Source\PSoC6\pdl\drivers/peripheral/scb/cy_scb_i2c.h ****     * \n <b>Typically, this option should be enabled</b> to configure hardware to
 600:Generated_Source\PSoC6\pdl\drivers/peripheral/scb/cy_scb_i2c.h ****     * automatically ACK incoming data. Otherwise hardware might not get the command
 601:Generated_Source\PSoC6\pdl\drivers/peripheral/scb/cy_scb_i2c.h ****     * to ACK or NACK a byte fast enough, and clock stretching is applied
 602:Generated_Source\PSoC6\pdl\drivers/peripheral/scb/cy_scb_i2c.h ****     * (the transaction is delayed) until the command is set. When this option is
 603:Generated_Source\PSoC6\pdl\drivers/peripheral/scb/cy_scb_i2c.h ****     * enabled, the number of interrupts required to process the transaction
 604:Generated_Source\PSoC6\pdl\drivers/peripheral/scb/cy_scb_i2c.h ****     * is significantly reduced because several bytes are handled at once.
 605:Generated_Source\PSoC6\pdl\drivers/peripheral/scb/cy_scb_i2c.h ****     * \n <b>However, there is a side effect:</b>
 606:Generated_Source\PSoC6\pdl\drivers/peripheral/scb/cy_scb_i2c.h ****     * * For master mode, the drawback is that the master may receive more
 607:Generated_Source\PSoC6\pdl\drivers/peripheral/scb/cy_scb_i2c.h ****     *   data than desired due to the interrupt latency. An interrupt fires
 608:Generated_Source\PSoC6\pdl\drivers/peripheral/scb/cy_scb_i2c.h ****     *   when the second-to-last byte has been received. This interrupt tells
 609:Generated_Source\PSoC6\pdl\drivers/peripheral/scb/cy_scb_i2c.h ****     *   the hardware to stop receiving data. If the latency of this interrupt
 610:Generated_Source\PSoC6\pdl\drivers/peripheral/scb/cy_scb_i2c.h ****     *   is longer than one transaction of the byte on the I2C bus, then the
 611:Generated_Source\PSoC6\pdl\drivers/peripheral/scb/cy_scb_i2c.h ****     *   hardware automatically ACKs the following bytes until the interrupt
 612:Generated_Source\PSoC6\pdl\drivers/peripheral/scb/cy_scb_i2c.h ****     *   is serviced or the RX FIFO becomes full.
 613:Generated_Source\PSoC6\pdl\drivers/peripheral/scb/cy_scb_i2c.h ****     * * For slave mode, the drawback is that the slave only NACKs
 614:Generated_Source\PSoC6\pdl\drivers/peripheral/scb/cy_scb_i2c.h ****     *   the master when the RX FIFO becomes full, NOT when the slave write
 615:Generated_Source\PSoC6\pdl\drivers/peripheral/scb/cy_scb_i2c.h ****     *   firmware buffer becomes full.
 616:Generated_Source\PSoC6\pdl\drivers/peripheral/scb/cy_scb_i2c.h ****     * \n In either master or slave mode, all received extra bytes are dropped.
 617:Generated_Source\PSoC6\pdl\drivers/peripheral/scb/cy_scb_i2c.h ****     * \note The useRxFifo option is not available if acceptAddrInFifo is true.
 618:Generated_Source\PSoC6\pdl\drivers/peripheral/scb/cy_scb_i2c.h ****     */
 619:Generated_Source\PSoC6\pdl\drivers/peripheral/scb/cy_scb_i2c.h ****     bool useRxFifo;
 620:Generated_Source\PSoC6\pdl\drivers/peripheral/scb/cy_scb_i2c.h **** 
 621:Generated_Source\PSoC6\pdl\drivers/peripheral/scb/cy_scb_i2c.h ****     /**
 622:Generated_Source\PSoC6\pdl\drivers/peripheral/scb/cy_scb_i2c.h ****     * The SCB provides a TX FIFO in hardware (consult the selected device
ARM GAS  C:\Users\Mathieu\AppData\Local\Temp\ccJNHpye.s 			page 29


 623:Generated_Source\PSoC6\pdl\drivers/peripheral/scb/cy_scb_i2c.h ****     * datasheet to get the actual FIFO size). The useTxFifo option defines how the
 624:Generated_Source\PSoC6\pdl\drivers/peripheral/scb/cy_scb_i2c.h ****     * driver firmware loads data into the TX FIFO:
 625:Generated_Source\PSoC6\pdl\drivers/peripheral/scb/cy_scb_i2c.h ****     * * If this option is enabled, the TX FIFO is fully loaded with data and the
 626:Generated_Source\PSoC6\pdl\drivers/peripheral/scb/cy_scb_i2c.h ****     *   interrupt is enabled to keep the TX FIFO loaded until the end of the transaction.
 627:Generated_Source\PSoC6\pdl\drivers/peripheral/scb/cy_scb_i2c.h ****     * * If this option is disabled, a single byte is loaded into the TX FIFO and
 628:Generated_Source\PSoC6\pdl\drivers/peripheral/scb/cy_scb_i2c.h ****     *   the interrupt enabled to load the next byte when the TX FIFO becomes empty
 629:Generated_Source\PSoC6\pdl\drivers/peripheral/scb/cy_scb_i2c.h ****     *   (so each byte requires interrupt processing).
 630:Generated_Source\PSoC6\pdl\drivers/peripheral/scb/cy_scb_i2c.h ****     * \n <b>Typically, this option should be enabled</b> to keep the TX FIFO loaded with
 631:Generated_Source\PSoC6\pdl\drivers/peripheral/scb/cy_scb_i2c.h ****     * data and reduce the probability of clock stretching. When there is no data
 632:Generated_Source\PSoC6\pdl\drivers/peripheral/scb/cy_scb_i2c.h ****     * to transfer, clock stretching is applied (the transaction is delayed) until
 633:Generated_Source\PSoC6\pdl\drivers/peripheral/scb/cy_scb_i2c.h ****     * the data is loaded. When this option is enabled, the number of interrupts required
 634:Generated_Source\PSoC6\pdl\drivers/peripheral/scb/cy_scb_i2c.h ****     * to process the transaction is significantly reduced because several
 635:Generated_Source\PSoC6\pdl\drivers/peripheral/scb/cy_scb_i2c.h ****     * bytes are handled at once.
 636:Generated_Source\PSoC6\pdl\drivers/peripheral/scb/cy_scb_i2c.h ****     * \n <b>The drawback of enabling useTxFifo</b> is that the abort operation clears
 637:Generated_Source\PSoC6\pdl\drivers/peripheral/scb/cy_scb_i2c.h ****     * the TX FIFO. The TX FIFO clear operation also clears the shift
 638:Generated_Source\PSoC6\pdl\drivers/peripheral/scb/cy_scb_i2c.h ****     * register. As a result the shifter may be cleared in the middle of a byte
 639:Generated_Source\PSoC6\pdl\drivers/peripheral/scb/cy_scb_i2c.h ****     * transaction, corrupting it. The remaining bits to transaction within the
 640:Generated_Source\PSoC6\pdl\drivers/peripheral/scb/cy_scb_i2c.h ****     * corrupted byte are complemented with 1s. If this is an issue,
 641:Generated_Source\PSoC6\pdl\drivers/peripheral/scb/cy_scb_i2c.h ****     * then do not enable this option.
 642:Generated_Source\PSoC6\pdl\drivers/peripheral/scb/cy_scb_i2c.h ****     */
 643:Generated_Source\PSoC6\pdl\drivers/peripheral/scb/cy_scb_i2c.h ****     bool useTxFifo;
 644:Generated_Source\PSoC6\pdl\drivers/peripheral/scb/cy_scb_i2c.h **** 
 645:Generated_Source\PSoC6\pdl\drivers/peripheral/scb/cy_scb_i2c.h ****     /**
 646:Generated_Source\PSoC6\pdl\drivers/peripheral/scb/cy_scb_i2c.h ****     * The 7-bit right justified slave address, used only for the slave mode
 647:Generated_Source\PSoC6\pdl\drivers/peripheral/scb/cy_scb_i2c.h ****     */
 648:Generated_Source\PSoC6\pdl\drivers/peripheral/scb/cy_scb_i2c.h ****     uint8_t slaveAddress;
 649:Generated_Source\PSoC6\pdl\drivers/peripheral/scb/cy_scb_i2c.h **** 
 650:Generated_Source\PSoC6\pdl\drivers/peripheral/scb/cy_scb_i2c.h ****     /**
 651:Generated_Source\PSoC6\pdl\drivers/peripheral/scb/cy_scb_i2c.h ****     * The slave address mask is used to mask bits of the slave address during 
 652:Generated_Source\PSoC6\pdl\drivers/peripheral/scb/cy_scb_i2c.h ****     * the address match procedure (it is used only for the slave mode). 
 653:Generated_Source\PSoC6\pdl\drivers/peripheral/scb/cy_scb_i2c.h ****     * Bit 0 of the address mask corresponds to the 
 654:Generated_Source\PSoC6\pdl\drivers/peripheral/scb/cy_scb_i2c.h ****     * read/write direction bit and is always a do not care in the address match 
 655:Generated_Source\PSoC6\pdl\drivers/peripheral/scb/cy_scb_i2c.h ****     * therefore must be set 0. Bit value 0 - excludes bit from address 
 656:Generated_Source\PSoC6\pdl\drivers/peripheral/scb/cy_scb_i2c.h ****     * comparison. Bit value 1 - the bit needs to match with the corresponding 
 657:Generated_Source\PSoC6\pdl\drivers/peripheral/scb/cy_scb_i2c.h ****     * bit of the I2C slave address.
 658:Generated_Source\PSoC6\pdl\drivers/peripheral/scb/cy_scb_i2c.h ****     */
 659:Generated_Source\PSoC6\pdl\drivers/peripheral/scb/cy_scb_i2c.h ****     uint8_t slaveAddressMask;
 660:Generated_Source\PSoC6\pdl\drivers/peripheral/scb/cy_scb_i2c.h **** 
 661:Generated_Source\PSoC6\pdl\drivers/peripheral/scb/cy_scb_i2c.h ****     /**
 662:Generated_Source\PSoC6\pdl\drivers/peripheral/scb/cy_scb_i2c.h ****     * True - the slave address is accepted in the RX FIFO, false - the slave
 663:Generated_Source\PSoC6\pdl\drivers/peripheral/scb/cy_scb_i2c.h ****     * addresses are not accepted in the RX FIFO
 664:Generated_Source\PSoC6\pdl\drivers/peripheral/scb/cy_scb_i2c.h ****     */
 665:Generated_Source\PSoC6\pdl\drivers/peripheral/scb/cy_scb_i2c.h ****     bool acceptAddrInFifo;
 666:Generated_Source\PSoC6\pdl\drivers/peripheral/scb/cy_scb_i2c.h **** 
 667:Generated_Source\PSoC6\pdl\drivers/peripheral/scb/cy_scb_i2c.h ****     /**
 668:Generated_Source\PSoC6\pdl\drivers/peripheral/scb/cy_scb_i2c.h ****     * True - accept the general call address; false - ignore the general
 669:Generated_Source\PSoC6\pdl\drivers/peripheral/scb/cy_scb_i2c.h ****     * call address.
 670:Generated_Source\PSoC6\pdl\drivers/peripheral/scb/cy_scb_i2c.h ****     */
 671:Generated_Source\PSoC6\pdl\drivers/peripheral/scb/cy_scb_i2c.h ****     bool ackGeneralAddr;
 672:Generated_Source\PSoC6\pdl\drivers/peripheral/scb/cy_scb_i2c.h **** 
 673:Generated_Source\PSoC6\pdl\drivers/peripheral/scb/cy_scb_i2c.h ****     /**
 674:Generated_Source\PSoC6\pdl\drivers/peripheral/scb/cy_scb_i2c.h ****     * When set, the slave will wake the device from Deep Sleep on an address
 675:Generated_Source\PSoC6\pdl\drivers/peripheral/scb/cy_scb_i2c.h ****     * match (the device datasheet must be consulted to determine which SCBs
 676:Generated_Source\PSoC6\pdl\drivers/peripheral/scb/cy_scb_i2c.h ****     * support this mode)
 677:Generated_Source\PSoC6\pdl\drivers/peripheral/scb/cy_scb_i2c.h ****     */
 678:Generated_Source\PSoC6\pdl\drivers/peripheral/scb/cy_scb_i2c.h ****     bool enableWakeFromSleep;
 679:Generated_Source\PSoC6\pdl\drivers/peripheral/scb/cy_scb_i2c.h **** 
ARM GAS  C:\Users\Mathieu\AppData\Local\Temp\ccJNHpye.s 			page 30


 680:Generated_Source\PSoC6\pdl\drivers/peripheral/scb/cy_scb_i2c.h ****     /**
 681:Generated_Source\PSoC6\pdl\drivers/peripheral/scb/cy_scb_i2c.h ****     * Enables a digital 3-tap median filter to be applied to the inputs
 682:Generated_Source\PSoC6\pdl\drivers/peripheral/scb/cy_scb_i2c.h ****     * of filter glitches on the lines.
 683:Generated_Source\PSoC6\pdl\drivers/peripheral/scb/cy_scb_i2c.h ****     */
 684:Generated_Source\PSoC6\pdl\drivers/peripheral/scb/cy_scb_i2c.h ****     bool enableDigitalFilter;
 685:Generated_Source\PSoC6\pdl\drivers/peripheral/scb/cy_scb_i2c.h **** 
 686:Generated_Source\PSoC6\pdl\drivers/peripheral/scb/cy_scb_i2c.h ****     /**
 687:Generated_Source\PSoC6\pdl\drivers/peripheral/scb/cy_scb_i2c.h ****     * The number of SCB clock cycles in the low phase of SCL. Only applicable 
 688:Generated_Source\PSoC6\pdl\drivers/peripheral/scb/cy_scb_i2c.h ****     * in master modes. The valid range is 7 to 16.
 689:Generated_Source\PSoC6\pdl\drivers/peripheral/scb/cy_scb_i2c.h ****     */
 690:Generated_Source\PSoC6\pdl\drivers/peripheral/scb/cy_scb_i2c.h ****     uint32_t lowPhaseDutyCycle;
 691:Generated_Source\PSoC6\pdl\drivers/peripheral/scb/cy_scb_i2c.h **** 
 692:Generated_Source\PSoC6\pdl\drivers/peripheral/scb/cy_scb_i2c.h ****     /**
 693:Generated_Source\PSoC6\pdl\drivers/peripheral/scb/cy_scb_i2c.h ****     * The number of SCB clock cycles in the high phase of SCL. Only applicable 
 694:Generated_Source\PSoC6\pdl\drivers/peripheral/scb/cy_scb_i2c.h ****     * in master modes. The valid range is 5 to 16.
 695:Generated_Source\PSoC6\pdl\drivers/peripheral/scb/cy_scb_i2c.h ****     */
 696:Generated_Source\PSoC6\pdl\drivers/peripheral/scb/cy_scb_i2c.h ****     uint32_t highPhaseDutyCycle;
 697:Generated_Source\PSoC6\pdl\drivers/peripheral/scb/cy_scb_i2c.h **** 
 698:Generated_Source\PSoC6\pdl\drivers/peripheral/scb/cy_scb_i2c.h **** } cy_stc_scb_i2c_config_t;
 699:Generated_Source\PSoC6\pdl\drivers/peripheral/scb/cy_scb_i2c.h **** 
 700:Generated_Source\PSoC6\pdl\drivers/peripheral/scb/cy_scb_i2c.h **** /** I2C context structure.
 701:Generated_Source\PSoC6\pdl\drivers/peripheral/scb/cy_scb_i2c.h **** * All fields for the context structure are internal. Firmware never reads or
 702:Generated_Source\PSoC6\pdl\drivers/peripheral/scb/cy_scb_i2c.h **** * writes these values. Firmware allocates the structure and provides the
 703:Generated_Source\PSoC6\pdl\drivers/peripheral/scb/cy_scb_i2c.h **** * address of the structure to the driver in function calls. Firmware must
 704:Generated_Source\PSoC6\pdl\drivers/peripheral/scb/cy_scb_i2c.h **** * ensure that the defined instance of this structure remains in scope
 705:Generated_Source\PSoC6\pdl\drivers/peripheral/scb/cy_scb_i2c.h **** * while the drive is in use.
 706:Generated_Source\PSoC6\pdl\drivers/peripheral/scb/cy_scb_i2c.h **** */
 707:Generated_Source\PSoC6\pdl\drivers/peripheral/scb/cy_scb_i2c.h **** typedef struct cy_stc_scb_i2c_context
 708:Generated_Source\PSoC6\pdl\drivers/peripheral/scb/cy_scb_i2c.h **** {
 709:Generated_Source\PSoC6\pdl\drivers/peripheral/scb/cy_scb_i2c.h ****     /** \cond INTERNAL */
 710:Generated_Source\PSoC6\pdl\drivers/peripheral/scb/cy_scb_i2c.h ****     bool useRxFifo;             /**< Stores RX FIFO configuration */
 711:Generated_Source\PSoC6\pdl\drivers/peripheral/scb/cy_scb_i2c.h ****     bool useTxFifo;             /**< Stores TX FIFO configuration */
 712:Generated_Source\PSoC6\pdl\drivers/peripheral/scb/cy_scb_i2c.h **** 
 713:Generated_Source\PSoC6\pdl\drivers/peripheral/scb/cy_scb_i2c.h ****     volatile uint32_t state;    /**< The driver state */
 714:Generated_Source\PSoC6\pdl\drivers/peripheral/scb/cy_scb_i2c.h **** 
 715:Generated_Source\PSoC6\pdl\drivers/peripheral/scb/cy_scb_i2c.h ****     volatile uint32_t masterStatus; /**< The master status */
 716:Generated_Source\PSoC6\pdl\drivers/peripheral/scb/cy_scb_i2c.h ****     bool     masterPause;           /**< Stores how the master ends the transaction */
 717:Generated_Source\PSoC6\pdl\drivers/peripheral/scb/cy_scb_i2c.h ****     bool     masterRdDir;           /**< The direction of the master transaction */
 718:Generated_Source\PSoC6\pdl\drivers/peripheral/scb/cy_scb_i2c.h **** 
 719:Generated_Source\PSoC6\pdl\drivers/peripheral/scb/cy_scb_i2c.h ****     uint8_t  *masterBuffer;     /**< The pointer to the master buffer (either for a transmit or a r
 720:Generated_Source\PSoC6\pdl\drivers/peripheral/scb/cy_scb_i2c.h ****     uint32_t  masterBufferSize;         /**< The current master buffer size */
 721:Generated_Source\PSoC6\pdl\drivers/peripheral/scb/cy_scb_i2c.h ****     volatile uint32_t masterBufferIdx;  /**< The current location in the master buffer */
 722:Generated_Source\PSoC6\pdl\drivers/peripheral/scb/cy_scb_i2c.h ****     volatile uint32_t masterNumBytes;   /**< The number of bytes to send or receive */
 723:Generated_Source\PSoC6\pdl\drivers/peripheral/scb/cy_scb_i2c.h **** 
 724:Generated_Source\PSoC6\pdl\drivers/peripheral/scb/cy_scb_i2c.h ****     volatile uint32_t slaveStatus;       /**< The slave status */
 725:Generated_Source\PSoC6\pdl\drivers/peripheral/scb/cy_scb_i2c.h ****     volatile bool     slaveRdBufEmpty;   /**< Tracks slave Read buffer empty event */
 726:Generated_Source\PSoC6\pdl\drivers/peripheral/scb/cy_scb_i2c.h **** 
 727:Generated_Source\PSoC6\pdl\drivers/peripheral/scb/cy_scb_i2c.h ****     uint8_t  *slaveTxBuffer;             /**< The pointer to the slave transmit buffer (a master re
 728:Generated_Source\PSoC6\pdl\drivers/peripheral/scb/cy_scb_i2c.h ****     uint32_t  slaveTxBufferSize;         /**< The current slave transmit buffer size */
 729:Generated_Source\PSoC6\pdl\drivers/peripheral/scb/cy_scb_i2c.h ****     volatile uint32_t slaveTxBufferIdx;  /**< The current location in the slave buffer */
 730:Generated_Source\PSoC6\pdl\drivers/peripheral/scb/cy_scb_i2c.h ****     volatile uint32_t slaveTxBufferCnt;  /**< The number of transferred bytes */
 731:Generated_Source\PSoC6\pdl\drivers/peripheral/scb/cy_scb_i2c.h **** 
 732:Generated_Source\PSoC6\pdl\drivers/peripheral/scb/cy_scb_i2c.h ****     uint8_t  *slaveRxBuffer;             /**< The pointer to the slave receive buffer (a master wri
 733:Generated_Source\PSoC6\pdl\drivers/peripheral/scb/cy_scb_i2c.h ****     uint32_t  slaveRxBufferSize;         /**< The current slave receive buffer size */
 734:Generated_Source\PSoC6\pdl\drivers/peripheral/scb/cy_scb_i2c.h ****     volatile uint32_t slaveRxBufferIdx;  /**< The current location in the slave buffer */
 735:Generated_Source\PSoC6\pdl\drivers/peripheral/scb/cy_scb_i2c.h **** 
 736:Generated_Source\PSoC6\pdl\drivers/peripheral/scb/cy_scb_i2c.h ****     /**
ARM GAS  C:\Users\Mathieu\AppData\Local\Temp\ccJNHpye.s 			page 31


 737:Generated_Source\PSoC6\pdl\drivers/peripheral/scb/cy_scb_i2c.h ****     * The pointer to an event callback that is called when any of
 738:Generated_Source\PSoC6\pdl\drivers/peripheral/scb/cy_scb_i2c.h ****     * \ref group_scb_i2c_macros_callback_events occurs
 739:Generated_Source\PSoC6\pdl\drivers/peripheral/scb/cy_scb_i2c.h ****     */
 740:Generated_Source\PSoC6\pdl\drivers/peripheral/scb/cy_scb_i2c.h ****     cy_cb_scb_i2c_handle_events_t cbEvents;
 741:Generated_Source\PSoC6\pdl\drivers/peripheral/scb/cy_scb_i2c.h **** 
 742:Generated_Source\PSoC6\pdl\drivers/peripheral/scb/cy_scb_i2c.h ****     /**
 743:Generated_Source\PSoC6\pdl\drivers/peripheral/scb/cy_scb_i2c.h ****     * The pointer to an address callback that is called when any of
 744:Generated_Source\PSoC6\pdl\drivers/peripheral/scb/cy_scb_i2c.h ****     * \ref group_scb_i2c_macros_addr_callback_events occurs (applicable only
 745:Generated_Source\PSoC6\pdl\drivers/peripheral/scb/cy_scb_i2c.h ****     * for the slave)
 746:Generated_Source\PSoC6\pdl\drivers/peripheral/scb/cy_scb_i2c.h ****     */
 747:Generated_Source\PSoC6\pdl\drivers/peripheral/scb/cy_scb_i2c.h ****     cy_cb_scb_i2c_handle_addr_t   cbAddr;
 748:Generated_Source\PSoC6\pdl\drivers/peripheral/scb/cy_scb_i2c.h **** 
 749:Generated_Source\PSoC6\pdl\drivers/peripheral/scb/cy_scb_i2c.h ****     /** \endcond */
 750:Generated_Source\PSoC6\pdl\drivers/peripheral/scb/cy_scb_i2c.h **** } cy_stc_scb_i2c_context_t;
 751:Generated_Source\PSoC6\pdl\drivers/peripheral/scb/cy_scb_i2c.h **** 
 752:Generated_Source\PSoC6\pdl\drivers/peripheral/scb/cy_scb_i2c.h **** /** The I2C Master transfer structure */
 753:Generated_Source\PSoC6\pdl\drivers/peripheral/scb/cy_scb_i2c.h **** typedef struct cy_stc_scb_i2c_master_xfer_config
 754:Generated_Source\PSoC6\pdl\drivers/peripheral/scb/cy_scb_i2c.h **** {
 755:Generated_Source\PSoC6\pdl\drivers/peripheral/scb/cy_scb_i2c.h ****     /** The 7-bit right justified slave address to communicate with */
 756:Generated_Source\PSoC6\pdl\drivers/peripheral/scb/cy_scb_i2c.h ****     uint8_t  slaveAddress;
 757:Generated_Source\PSoC6\pdl\drivers/peripheral/scb/cy_scb_i2c.h **** 
 758:Generated_Source\PSoC6\pdl\drivers/peripheral/scb/cy_scb_i2c.h ****     /**
 759:Generated_Source\PSoC6\pdl\drivers/peripheral/scb/cy_scb_i2c.h ****     * The pointer to the buffer for data to read from the slave or 
 760:Generated_Source\PSoC6\pdl\drivers/peripheral/scb/cy_scb_i2c.h ****     * data to write into the slave
 761:Generated_Source\PSoC6\pdl\drivers/peripheral/scb/cy_scb_i2c.h ****     */
 762:Generated_Source\PSoC6\pdl\drivers/peripheral/scb/cy_scb_i2c.h ****     uint8_t  *buffer;
 763:Generated_Source\PSoC6\pdl\drivers/peripheral/scb/cy_scb_i2c.h **** 
 764:Generated_Source\PSoC6\pdl\drivers/peripheral/scb/cy_scb_i2c.h ****     /** The size of the buffer */
 765:Generated_Source\PSoC6\pdl\drivers/peripheral/scb/cy_scb_i2c.h ****     uint32_t bufferSize;
 766:Generated_Source\PSoC6\pdl\drivers/peripheral/scb/cy_scb_i2c.h **** 
 767:Generated_Source\PSoC6\pdl\drivers/peripheral/scb/cy_scb_i2c.h ****     /**
 768:Generated_Source\PSoC6\pdl\drivers/peripheral/scb/cy_scb_i2c.h ****     * The transfer operation is pending - the stop condition will not
 769:Generated_Source\PSoC6\pdl\drivers/peripheral/scb/cy_scb_i2c.h ****     * be generated. 
 770:Generated_Source\PSoC6\pdl\drivers/peripheral/scb/cy_scb_i2c.h ****     * A new transfer starts from start condition and ends 
 771:Generated_Source\PSoC6\pdl\drivers/peripheral/scb/cy_scb_i2c.h ****     * with or without stop condition. The stop condition releases I2C 
 772:Generated_Source\PSoC6\pdl\drivers/peripheral/scb/cy_scb_i2c.h ****     * bus from master control. When stop is not generated master keeps 
 773:Generated_Source\PSoC6\pdl\drivers/peripheral/scb/cy_scb_i2c.h ****     * bus control (transfer is pending) and can issue the next transfer 
 774:Generated_Source\PSoC6\pdl\drivers/peripheral/scb/cy_scb_i2c.h ****     * using restart condition instead of start. The I2C driver 
 775:Generated_Source\PSoC6\pdl\drivers/peripheral/scb/cy_scb_i2c.h ****     * automatically generates start or restart condition depends on 
 776:Generated_Source\PSoC6\pdl\drivers/peripheral/scb/cy_scb_i2c.h ****     * current state.
 777:Generated_Source\PSoC6\pdl\drivers/peripheral/scb/cy_scb_i2c.h ****     * Note if master lost arbitration during transfer it stops control 
 778:Generated_Source\PSoC6\pdl\drivers/peripheral/scb/cy_scb_i2c.h ****     * the bus and does not send/receive data or generate stop condition - the 
 779:Generated_Source\PSoC6\pdl\drivers/peripheral/scb/cy_scb_i2c.h ****     * transfer ends.
 780:Generated_Source\PSoC6\pdl\drivers/peripheral/scb/cy_scb_i2c.h ****     */
 781:Generated_Source\PSoC6\pdl\drivers/peripheral/scb/cy_scb_i2c.h ****     bool     xferPending;
 782:Generated_Source\PSoC6\pdl\drivers/peripheral/scb/cy_scb_i2c.h **** } cy_stc_scb_i2c_master_xfer_config_t;
 783:Generated_Source\PSoC6\pdl\drivers/peripheral/scb/cy_scb_i2c.h **** /** \} group_scb_i2c_data_structures */
 784:Generated_Source\PSoC6\pdl\drivers/peripheral/scb/cy_scb_i2c.h **** 
 785:Generated_Source\PSoC6\pdl\drivers/peripheral/scb/cy_scb_i2c.h **** 
 786:Generated_Source\PSoC6\pdl\drivers/peripheral/scb/cy_scb_i2c.h **** /*******************************************************************************
 787:Generated_Source\PSoC6\pdl\drivers/peripheral/scb/cy_scb_i2c.h **** *                            Function Prototypes
 788:Generated_Source\PSoC6\pdl\drivers/peripheral/scb/cy_scb_i2c.h **** *******************************************************************************/
 789:Generated_Source\PSoC6\pdl\drivers/peripheral/scb/cy_scb_i2c.h **** 
 790:Generated_Source\PSoC6\pdl\drivers/peripheral/scb/cy_scb_i2c.h **** /**
 791:Generated_Source\PSoC6\pdl\drivers/peripheral/scb/cy_scb_i2c.h **** * \addtogroup group_scb_i2c_general_functions
 792:Generated_Source\PSoC6\pdl\drivers/peripheral/scb/cy_scb_i2c.h **** * \{
 793:Generated_Source\PSoC6\pdl\drivers/peripheral/scb/cy_scb_i2c.h **** */
ARM GAS  C:\Users\Mathieu\AppData\Local\Temp\ccJNHpye.s 			page 32


 794:Generated_Source\PSoC6\pdl\drivers/peripheral/scb/cy_scb_i2c.h **** cy_en_scb_i2c_status_t Cy_SCB_I2C_Init(CySCB_Type *base, cy_stc_scb_i2c_config_t const *config,
 795:Generated_Source\PSoC6\pdl\drivers/peripheral/scb/cy_scb_i2c.h ****                                        cy_stc_scb_i2c_context_t *context);
 796:Generated_Source\PSoC6\pdl\drivers/peripheral/scb/cy_scb_i2c.h **** void Cy_SCB_I2C_DeInit(CySCB_Type *base);
 797:Generated_Source\PSoC6\pdl\drivers/peripheral/scb/cy_scb_i2c.h **** __STATIC_INLINE void Cy_SCB_I2C_Enable(CySCB_Type *base);
 798:Generated_Source\PSoC6\pdl\drivers/peripheral/scb/cy_scb_i2c.h **** void Cy_SCB_I2C_Disable(CySCB_Type *base, cy_stc_scb_i2c_context_t *context);
 799:Generated_Source\PSoC6\pdl\drivers/peripheral/scb/cy_scb_i2c.h **** 
 800:Generated_Source\PSoC6\pdl\drivers/peripheral/scb/cy_scb_i2c.h **** uint32_t Cy_SCB_I2C_SetDataRate(CySCB_Type *base, uint32_t dataRateHz, uint32_t scbClockHz);
 801:Generated_Source\PSoC6\pdl\drivers/peripheral/scb/cy_scb_i2c.h **** uint32_t Cy_SCB_I2C_GetDataRate(CySCB_Type const *base, uint32_t scbClockHz);
 802:Generated_Source\PSoC6\pdl\drivers/peripheral/scb/cy_scb_i2c.h **** 
 803:Generated_Source\PSoC6\pdl\drivers/peripheral/scb/cy_scb_i2c.h **** __STATIC_INLINE void     Cy_SCB_I2C_SlaveSetAddress(CySCB_Type *base, uint8_t addr);
 804:Generated_Source\PSoC6\pdl\drivers/peripheral/scb/cy_scb_i2c.h **** __STATIC_INLINE uint32_t Cy_SCB_I2C_SlaveGetAddress(CySCB_Type const *base);
 805:Generated_Source\PSoC6\pdl\drivers/peripheral/scb/cy_scb_i2c.h **** __STATIC_INLINE void     Cy_SCB_I2C_SlaveSetAddressMask(CySCB_Type *base, uint8_t addrMask);
 806:Generated_Source\PSoC6\pdl\drivers/peripheral/scb/cy_scb_i2c.h **** __STATIC_INLINE uint32_t Cy_SCB_I2C_SlaveGetAddressMask(CySCB_Type const *base);
 807:Generated_Source\PSoC6\pdl\drivers/peripheral/scb/cy_scb_i2c.h **** 
 808:Generated_Source\PSoC6\pdl\drivers/peripheral/scb/cy_scb_i2c.h **** __STATIC_INLINE bool Cy_SCB_I2C_IsBusBusy(CySCB_Type const *base);
 809:Generated_Source\PSoC6\pdl\drivers/peripheral/scb/cy_scb_i2c.h **** 
 810:Generated_Source\PSoC6\pdl\drivers/peripheral/scb/cy_scb_i2c.h **** __STATIC_INLINE void Cy_SCB_I2C_MasterSetLowPhaseDutyCycle (CySCB_Type *base, uint32_t clockCycles)
 811:Generated_Source\PSoC6\pdl\drivers/peripheral/scb/cy_scb_i2c.h **** __STATIC_INLINE void Cy_SCB_I2C_MasterSetHighPhaseDutyCycle(CySCB_Type *base, uint32_t clockCycles)
 812:Generated_Source\PSoC6\pdl\drivers/peripheral/scb/cy_scb_i2c.h **** /** \} group_scb_i2c_general_functions */
 813:Generated_Source\PSoC6\pdl\drivers/peripheral/scb/cy_scb_i2c.h **** 
 814:Generated_Source\PSoC6\pdl\drivers/peripheral/scb/cy_scb_i2c.h **** /**
 815:Generated_Source\PSoC6\pdl\drivers/peripheral/scb/cy_scb_i2c.h **** * \addtogroup group_scb_i2c_slave_functions
 816:Generated_Source\PSoC6\pdl\drivers/peripheral/scb/cy_scb_i2c.h **** * \{
 817:Generated_Source\PSoC6\pdl\drivers/peripheral/scb/cy_scb_i2c.h **** */
 818:Generated_Source\PSoC6\pdl\drivers/peripheral/scb/cy_scb_i2c.h **** void Cy_SCB_I2C_SlaveConfigReadBuf (CySCB_Type const *base, uint8_t *buffer, uint32_t size,
 819:Generated_Source\PSoC6\pdl\drivers/peripheral/scb/cy_scb_i2c.h ****                                     cy_stc_scb_i2c_context_t *context);
 820:Generated_Source\PSoC6\pdl\drivers/peripheral/scb/cy_scb_i2c.h **** void Cy_SCB_I2C_SlaveAbortRead     (CySCB_Type *base, cy_stc_scb_i2c_context_t *context);
 821:Generated_Source\PSoC6\pdl\drivers/peripheral/scb/cy_scb_i2c.h **** void Cy_SCB_I2C_SlaveConfigWriteBuf(CySCB_Type const *base, uint8_t *buffer, uint32_t size,
 822:Generated_Source\PSoC6\pdl\drivers/peripheral/scb/cy_scb_i2c.h ****                                     cy_stc_scb_i2c_context_t *context);
 823:Generated_Source\PSoC6\pdl\drivers/peripheral/scb/cy_scb_i2c.h **** void Cy_SCB_I2C_SlaveAbortWrite    (CySCB_Type *base, cy_stc_scb_i2c_context_t *context);
 824:Generated_Source\PSoC6\pdl\drivers/peripheral/scb/cy_scb_i2c.h **** 
 825:Generated_Source\PSoC6\pdl\drivers/peripheral/scb/cy_scb_i2c.h **** uint32_t Cy_SCB_I2C_SlaveGetStatus       (CySCB_Type const *base, cy_stc_scb_i2c_context_t const *c
 826:Generated_Source\PSoC6\pdl\drivers/peripheral/scb/cy_scb_i2c.h **** uint32_t Cy_SCB_I2C_SlaveClearReadStatus (CySCB_Type const *base, cy_stc_scb_i2c_context_t *context
 827:Generated_Source\PSoC6\pdl\drivers/peripheral/scb/cy_scb_i2c.h **** uint32_t Cy_SCB_I2C_SlaveClearWriteStatus(CySCB_Type const *base, cy_stc_scb_i2c_context_t *context
 828:Generated_Source\PSoC6\pdl\drivers/peripheral/scb/cy_scb_i2c.h **** 
 829:Generated_Source\PSoC6\pdl\drivers/peripheral/scb/cy_scb_i2c.h **** uint32_t Cy_SCB_I2C_SlaveGetReadTransferCount (CySCB_Type const *base, cy_stc_scb_i2c_context_t con
 830:Generated_Source\PSoC6\pdl\drivers/peripheral/scb/cy_scb_i2c.h **** uint32_t Cy_SCB_I2C_SlaveGetWriteTransferCount(CySCB_Type const *base, cy_stc_scb_i2c_context_t con
 831:Generated_Source\PSoC6\pdl\drivers/peripheral/scb/cy_scb_i2c.h **** /** \} group_scb_i2c_slave_functions */
 832:Generated_Source\PSoC6\pdl\drivers/peripheral/scb/cy_scb_i2c.h **** 
 833:Generated_Source\PSoC6\pdl\drivers/peripheral/scb/cy_scb_i2c.h **** /**
 834:Generated_Source\PSoC6\pdl\drivers/peripheral/scb/cy_scb_i2c.h **** * \addtogroup group_scb_i2c_master_high_level_functions
 835:Generated_Source\PSoC6\pdl\drivers/peripheral/scb/cy_scb_i2c.h **** * \{
 836:Generated_Source\PSoC6\pdl\drivers/peripheral/scb/cy_scb_i2c.h **** */
 837:Generated_Source\PSoC6\pdl\drivers/peripheral/scb/cy_scb_i2c.h **** cy_en_scb_i2c_status_t Cy_SCB_I2C_MasterWrite(CySCB_Type *base, cy_stc_scb_i2c_master_xfer_config_t
 838:Generated_Source\PSoC6\pdl\drivers/peripheral/scb/cy_scb_i2c.h ****                                               cy_stc_scb_i2c_context_t *context);
 839:Generated_Source\PSoC6\pdl\drivers/peripheral/scb/cy_scb_i2c.h **** void     Cy_SCB_I2C_MasterAbortWrite         (CySCB_Type *base, cy_stc_scb_i2c_context_t *context);
 840:Generated_Source\PSoC6\pdl\drivers/peripheral/scb/cy_scb_i2c.h **** cy_en_scb_i2c_status_t Cy_SCB_I2C_MasterRead (CySCB_Type *base, cy_stc_scb_i2c_master_xfer_config_t
 841:Generated_Source\PSoC6\pdl\drivers/peripheral/scb/cy_scb_i2c.h ****                                               cy_stc_scb_i2c_context_t *context);
 842:Generated_Source\PSoC6\pdl\drivers/peripheral/scb/cy_scb_i2c.h **** void     Cy_SCB_I2C_MasterAbortRead          (CySCB_Type *base, cy_stc_scb_i2c_context_t *context);
 843:Generated_Source\PSoC6\pdl\drivers/peripheral/scb/cy_scb_i2c.h **** uint32_t Cy_SCB_I2C_MasterGetStatus          (CySCB_Type const *base, cy_stc_scb_i2c_context_t cons
 844:Generated_Source\PSoC6\pdl\drivers/peripheral/scb/cy_scb_i2c.h **** uint32_t Cy_SCB_I2C_MasterGetTransferCount   (CySCB_Type const *base, cy_stc_scb_i2c_context_t cons
 845:Generated_Source\PSoC6\pdl\drivers/peripheral/scb/cy_scb_i2c.h **** /** \} group_scb_i2c_master_low_high_functions */
 846:Generated_Source\PSoC6\pdl\drivers/peripheral/scb/cy_scb_i2c.h **** 
 847:Generated_Source\PSoC6\pdl\drivers/peripheral/scb/cy_scb_i2c.h **** /**
 848:Generated_Source\PSoC6\pdl\drivers/peripheral/scb/cy_scb_i2c.h **** * \addtogroup group_scb_i2c_master_low_level_functions
 849:Generated_Source\PSoC6\pdl\drivers/peripheral/scb/cy_scb_i2c.h **** * \{
 850:Generated_Source\PSoC6\pdl\drivers/peripheral/scb/cy_scb_i2c.h **** */
ARM GAS  C:\Users\Mathieu\AppData\Local\Temp\ccJNHpye.s 			page 33


 851:Generated_Source\PSoC6\pdl\drivers/peripheral/scb/cy_scb_i2c.h **** cy_en_scb_i2c_status_t Cy_SCB_I2C_MasterSendStart  (CySCB_Type *base, uint32_t address, cy_en_scb_i
 852:Generated_Source\PSoC6\pdl\drivers/peripheral/scb/cy_scb_i2c.h ****                                                     uint32_t timeoutMs, cy_stc_scb_i2c_context_t *c
 853:Generated_Source\PSoC6\pdl\drivers/peripheral/scb/cy_scb_i2c.h **** cy_en_scb_i2c_status_t Cy_SCB_I2C_MasterSendReStart(CySCB_Type *base, uint32_t address, cy_en_scb_i
 854:Generated_Source\PSoC6\pdl\drivers/peripheral/scb/cy_scb_i2c.h ****                                                     uint32_t timeoutMs, cy_stc_scb_i2c_context_t *c
 855:Generated_Source\PSoC6\pdl\drivers/peripheral/scb/cy_scb_i2c.h **** cy_en_scb_i2c_status_t Cy_SCB_I2C_MasterSendStop   (CySCB_Type *base,uint32_t timeoutMs, cy_stc_scb
 856:Generated_Source\PSoC6\pdl\drivers/peripheral/scb/cy_scb_i2c.h **** cy_en_scb_i2c_status_t Cy_SCB_I2C_MasterReadByte   (CySCB_Type *base, cy_en_scb_i2c_command_t ackNa
 857:Generated_Source\PSoC6\pdl\drivers/peripheral/scb/cy_scb_i2c.h ****                                                     uint32_t timeoutMs, cy_stc_scb_i2c_context_t *c
 858:Generated_Source\PSoC6\pdl\drivers/peripheral/scb/cy_scb_i2c.h **** cy_en_scb_i2c_status_t Cy_SCB_I2C_MasterWriteByte  (CySCB_Type *base, uint8_t byte, uint32_t timeou
 859:Generated_Source\PSoC6\pdl\drivers/peripheral/scb/cy_scb_i2c.h ****                                                     cy_stc_scb_i2c_context_t *context);
 860:Generated_Source\PSoC6\pdl\drivers/peripheral/scb/cy_scb_i2c.h **** /** \} group_scb_i2c_master_low_level_functions */
 861:Generated_Source\PSoC6\pdl\drivers/peripheral/scb/cy_scb_i2c.h **** 
 862:Generated_Source\PSoC6\pdl\drivers/peripheral/scb/cy_scb_i2c.h **** /**
 863:Generated_Source\PSoC6\pdl\drivers/peripheral/scb/cy_scb_i2c.h **** * \addtogroup group_scb_i2c_interrupt_functions
 864:Generated_Source\PSoC6\pdl\drivers/peripheral/scb/cy_scb_i2c.h **** * \{
 865:Generated_Source\PSoC6\pdl\drivers/peripheral/scb/cy_scb_i2c.h **** */
 866:Generated_Source\PSoC6\pdl\drivers/peripheral/scb/cy_scb_i2c.h **** void Cy_SCB_I2C_Interrupt      (CySCB_Type *base, cy_stc_scb_i2c_context_t *context);
 867:Generated_Source\PSoC6\pdl\drivers/peripheral/scb/cy_scb_i2c.h **** void Cy_SCB_I2C_SlaveInterrupt (CySCB_Type *base, cy_stc_scb_i2c_context_t *context);
 868:Generated_Source\PSoC6\pdl\drivers/peripheral/scb/cy_scb_i2c.h **** void Cy_SCB_I2C_MasterInterrupt (CySCB_Type *base, cy_stc_scb_i2c_context_t *context);
 869:Generated_Source\PSoC6\pdl\drivers/peripheral/scb/cy_scb_i2c.h **** 
 870:Generated_Source\PSoC6\pdl\drivers/peripheral/scb/cy_scb_i2c.h **** __STATIC_INLINE void Cy_SCB_I2C_RegisterEventCallback(CySCB_Type const *base, cy_cb_scb_i2c_handle_
 871:Generated_Source\PSoC6\pdl\drivers/peripheral/scb/cy_scb_i2c.h ****                                                       cy_stc_scb_i2c_context_t *context);
 872:Generated_Source\PSoC6\pdl\drivers/peripheral/scb/cy_scb_i2c.h **** __STATIC_INLINE void Cy_SCB_I2C_RegisterAddrCallback (CySCB_Type const *base, cy_cb_scb_i2c_handle_
 873:Generated_Source\PSoC6\pdl\drivers/peripheral/scb/cy_scb_i2c.h ****                                                       cy_stc_scb_i2c_context_t *context);
 874:Generated_Source\PSoC6\pdl\drivers/peripheral/scb/cy_scb_i2c.h **** /** \} group_scb_i2c_interrupt_functions */
 875:Generated_Source\PSoC6\pdl\drivers/peripheral/scb/cy_scb_i2c.h **** 
 876:Generated_Source\PSoC6\pdl\drivers/peripheral/scb/cy_scb_i2c.h **** /**
 877:Generated_Source\PSoC6\pdl\drivers/peripheral/scb/cy_scb_i2c.h **** * \addtogroup group_scb_i2c_low_power_functions
 878:Generated_Source\PSoC6\pdl\drivers/peripheral/scb/cy_scb_i2c.h **** * \{
 879:Generated_Source\PSoC6\pdl\drivers/peripheral/scb/cy_scb_i2c.h **** */
 880:Generated_Source\PSoC6\pdl\drivers/peripheral/scb/cy_scb_i2c.h **** cy_en_syspm_status_t Cy_SCB_I2C_DeepSleepCallback(cy_stc_syspm_callback_params_t *callbackParams, c
 881:Generated_Source\PSoC6\pdl\drivers/peripheral/scb/cy_scb_i2c.h **** cy_en_syspm_status_t Cy_SCB_I2C_HibernateCallback(cy_stc_syspm_callback_params_t *callbackParams, c
 882:Generated_Source\PSoC6\pdl\drivers/peripheral/scb/cy_scb_i2c.h **** /** \} group_scb_i2c_low_power_functions */
 883:Generated_Source\PSoC6\pdl\drivers/peripheral/scb/cy_scb_i2c.h **** 
 884:Generated_Source\PSoC6\pdl\drivers/peripheral/scb/cy_scb_i2c.h **** 
 885:Generated_Source\PSoC6\pdl\drivers/peripheral/scb/cy_scb_i2c.h **** /*******************************************************************************
 886:Generated_Source\PSoC6\pdl\drivers/peripheral/scb/cy_scb_i2c.h **** *                               API Constants
 887:Generated_Source\PSoC6\pdl\drivers/peripheral/scb/cy_scb_i2c.h **** *******************************************************************************/
 888:Generated_Source\PSoC6\pdl\drivers/peripheral/scb/cy_scb_i2c.h **** 
 889:Generated_Source\PSoC6\pdl\drivers/peripheral/scb/cy_scb_i2c.h **** /**
 890:Generated_Source\PSoC6\pdl\drivers/peripheral/scb/cy_scb_i2c.h **** * \addtogroup group_scb_i2c_macros
 891:Generated_Source\PSoC6\pdl\drivers/peripheral/scb/cy_scb_i2c.h **** * \{
 892:Generated_Source\PSoC6\pdl\drivers/peripheral/scb/cy_scb_i2c.h **** */
 893:Generated_Source\PSoC6\pdl\drivers/peripheral/scb/cy_scb_i2c.h **** 
 894:Generated_Source\PSoC6\pdl\drivers/peripheral/scb/cy_scb_i2c.h **** /**
 895:Generated_Source\PSoC6\pdl\drivers/peripheral/scb/cy_scb_i2c.h **** * \defgroup group_scb_i2c_macros_slave_status I2C Slave Status
 896:Generated_Source\PSoC6\pdl\drivers/peripheral/scb/cy_scb_i2c.h **** * Macros to check current I2C slave status returned by 
 897:Generated_Source\PSoC6\pdl\drivers/peripheral/scb/cy_scb_i2c.h **** * \ref Cy_SCB_I2C_SlaveGetStatus function. Each I2C slave status is encoded 
 898:Generated_Source\PSoC6\pdl\drivers/peripheral/scb/cy_scb_i2c.h **** * in a separate bit, therefore multiple bits may be set to indicate the 
 899:Generated_Source\PSoC6\pdl\drivers/peripheral/scb/cy_scb_i2c.h **** * current status.
 900:Generated_Source\PSoC6\pdl\drivers/peripheral/scb/cy_scb_i2c.h **** * \{
 901:Generated_Source\PSoC6\pdl\drivers/peripheral/scb/cy_scb_i2c.h **** */
 902:Generated_Source\PSoC6\pdl\drivers/peripheral/scb/cy_scb_i2c.h **** /** There is a read transaction in progress */
 903:Generated_Source\PSoC6\pdl\drivers/peripheral/scb/cy_scb_i2c.h **** #define CY_SCB_I2C_SLAVE_RD_BUSY       (0x00000001UL)
 904:Generated_Source\PSoC6\pdl\drivers/peripheral/scb/cy_scb_i2c.h **** 
 905:Generated_Source\PSoC6\pdl\drivers/peripheral/scb/cy_scb_i2c.h **** /**
 906:Generated_Source\PSoC6\pdl\drivers/peripheral/scb/cy_scb_i2c.h **** * All read data has been loaded into the TX FIFO, applicable only if
 907:Generated_Source\PSoC6\pdl\drivers/peripheral/scb/cy_scb_i2c.h **** * the TX FIFO is used
ARM GAS  C:\Users\Mathieu\AppData\Local\Temp\ccJNHpye.s 			page 34


 908:Generated_Source\PSoC6\pdl\drivers/peripheral/scb/cy_scb_i2c.h **** */
 909:Generated_Source\PSoC6\pdl\drivers/peripheral/scb/cy_scb_i2c.h **** #define CY_SCB_I2C_SLAVE_RD_IN_FIFO    (0x00000002UL)
 910:Generated_Source\PSoC6\pdl\drivers/peripheral/scb/cy_scb_i2c.h **** 
 911:Generated_Source\PSoC6\pdl\drivers/peripheral/scb/cy_scb_i2c.h **** /**
 912:Generated_Source\PSoC6\pdl\drivers/peripheral/scb/cy_scb_i2c.h **** * The master has finished reading data from the slave
 913:Generated_Source\PSoC6\pdl\drivers/peripheral/scb/cy_scb_i2c.h **** */
 914:Generated_Source\PSoC6\pdl\drivers/peripheral/scb/cy_scb_i2c.h **** #define CY_SCB_I2C_SLAVE_RD_CMPLT      (0x00000004UL)
 915:Generated_Source\PSoC6\pdl\drivers/peripheral/scb/cy_scb_i2c.h **** 
 916:Generated_Source\PSoC6\pdl\drivers/peripheral/scb/cy_scb_i2c.h **** /**
 917:Generated_Source\PSoC6\pdl\drivers/peripheral/scb/cy_scb_i2c.h **** * Set when the master tried to read more bytes than available in the configured
 918:Generated_Source\PSoC6\pdl\drivers/peripheral/scb/cy_scb_i2c.h **** * read buffer. The slave is not able to finish the transaction and sends
 919:Generated_Source\PSoC6\pdl\drivers/peripheral/scb/cy_scb_i2c.h **** * \ref CY_SCB_I2C_DEFAULT_TX.
 920:Generated_Source\PSoC6\pdl\drivers/peripheral/scb/cy_scb_i2c.h **** */
 921:Generated_Source\PSoC6\pdl\drivers/peripheral/scb/cy_scb_i2c.h **** #define CY_SCB_I2C_SLAVE_RD_UNDRFL     (0x00000008UL)
 922:Generated_Source\PSoC6\pdl\drivers/peripheral/scb/cy_scb_i2c.h **** 
 923:Generated_Source\PSoC6\pdl\drivers/peripheral/scb/cy_scb_i2c.h **** /** There is a write transaction in progress */
 924:Generated_Source\PSoC6\pdl\drivers/peripheral/scb/cy_scb_i2c.h **** #define CY_SCB_I2C_SLAVE_WR_BUSY       (0x00000010UL)
 925:Generated_Source\PSoC6\pdl\drivers/peripheral/scb/cy_scb_i2c.h **** 
 926:Generated_Source\PSoC6\pdl\drivers/peripheral/scb/cy_scb_i2c.h **** /**
 927:Generated_Source\PSoC6\pdl\drivers/peripheral/scb/cy_scb_i2c.h **** * The master has finished writing data into the slave
 928:Generated_Source\PSoC6\pdl\drivers/peripheral/scb/cy_scb_i2c.h **** */
 929:Generated_Source\PSoC6\pdl\drivers/peripheral/scb/cy_scb_i2c.h **** #define CY_SCB_I2C_SLAVE_WR_CMPLT      (0x00000020UL)
 930:Generated_Source\PSoC6\pdl\drivers/peripheral/scb/cy_scb_i2c.h **** 
 931:Generated_Source\PSoC6\pdl\drivers/peripheral/scb/cy_scb_i2c.h **** /**
 932:Generated_Source\PSoC6\pdl\drivers/peripheral/scb/cy_scb_i2c.h **** * The master attempted to write more bytes than space available in the
 933:Generated_Source\PSoC6\pdl\drivers/peripheral/scb/cy_scb_i2c.h **** * configured Write buffer. Note that all subsequent bytes are dropped.
 934:Generated_Source\PSoC6\pdl\drivers/peripheral/scb/cy_scb_i2c.h **** */
 935:Generated_Source\PSoC6\pdl\drivers/peripheral/scb/cy_scb_i2c.h **** #define CY_SCB_I2C_SLAVE_WR_OVRFL      (0x00000040UL)
 936:Generated_Source\PSoC6\pdl\drivers/peripheral/scb/cy_scb_i2c.h **** 
 937:Generated_Source\PSoC6\pdl\drivers/peripheral/scb/cy_scb_i2c.h **** /** The slave lost arbitration, and the transaction was aborted */
 938:Generated_Source\PSoC6\pdl\drivers/peripheral/scb/cy_scb_i2c.h **** #define CY_SCB_I2C_SLAVE_ARB_LOST      (0x00000080UL)
 939:Generated_Source\PSoC6\pdl\drivers/peripheral/scb/cy_scb_i2c.h **** 
 940:Generated_Source\PSoC6\pdl\drivers/peripheral/scb/cy_scb_i2c.h **** /**
 941:Generated_Source\PSoC6\pdl\drivers/peripheral/scb/cy_scb_i2c.h **** * The slave captured an error on the bus during a master transaction (source
 942:Generated_Source\PSoC6\pdl\drivers/peripheral/scb/cy_scb_i2c.h **** * of error is misplaced Start or Stop).
 943:Generated_Source\PSoC6\pdl\drivers/peripheral/scb/cy_scb_i2c.h **** */
 944:Generated_Source\PSoC6\pdl\drivers/peripheral/scb/cy_scb_i2c.h **** #define CY_SCB_I2C_SLAVE_BUS_ERR       (0x00000100UL)
 945:Generated_Source\PSoC6\pdl\drivers/peripheral/scb/cy_scb_i2c.h **** /** \} group_scb_i2c_macros_slave_status */
 946:Generated_Source\PSoC6\pdl\drivers/peripheral/scb/cy_scb_i2c.h **** 
 947:Generated_Source\PSoC6\pdl\drivers/peripheral/scb/cy_scb_i2c.h **** /**
 948:Generated_Source\PSoC6\pdl\drivers/peripheral/scb/cy_scb_i2c.h **** * \defgroup group_scb_i2c_macros_master_status I2C Master Status
 949:Generated_Source\PSoC6\pdl\drivers/peripheral/scb/cy_scb_i2c.h **** * Macros to check current I2C master status returned by 
 950:Generated_Source\PSoC6\pdl\drivers/peripheral/scb/cy_scb_i2c.h **** * \ref Cy_SCB_I2C_MasterGetStatus function. Each I2C master status is encoded 
 951:Generated_Source\PSoC6\pdl\drivers/peripheral/scb/cy_scb_i2c.h **** * in a separate bit, therefore multiple bits may be set to indicate the 
 952:Generated_Source\PSoC6\pdl\drivers/peripheral/scb/cy_scb_i2c.h **** * current status.
 953:Generated_Source\PSoC6\pdl\drivers/peripheral/scb/cy_scb_i2c.h **** * \{
 954:Generated_Source\PSoC6\pdl\drivers/peripheral/scb/cy_scb_i2c.h **** */
 955:Generated_Source\PSoC6\pdl\drivers/peripheral/scb/cy_scb_i2c.h **** 
 956:Generated_Source\PSoC6\pdl\drivers/peripheral/scb/cy_scb_i2c.h **** /**
 957:Generated_Source\PSoC6\pdl\drivers/peripheral/scb/cy_scb_i2c.h **** * The master is busy executing operation started by \ref Cy_SCB_I2C_MasterRead
 958:Generated_Source\PSoC6\pdl\drivers/peripheral/scb/cy_scb_i2c.h **** * or \ref Cy_SCB_I2C_MasterWrite
 959:Generated_Source\PSoC6\pdl\drivers/peripheral/scb/cy_scb_i2c.h **** */
 960:Generated_Source\PSoC6\pdl\drivers/peripheral/scb/cy_scb_i2c.h **** #define CY_SCB_I2C_MASTER_BUSY         (0x00010000UL)
 961:Generated_Source\PSoC6\pdl\drivers/peripheral/scb/cy_scb_i2c.h **** 
 962:Generated_Source\PSoC6\pdl\drivers/peripheral/scb/cy_scb_i2c.h **** /**
 963:Generated_Source\PSoC6\pdl\drivers/peripheral/scb/cy_scb_i2c.h **** * All Write data has been loaded into the TX FIFO
 964:Generated_Source\PSoC6\pdl\drivers/peripheral/scb/cy_scb_i2c.h **** */
ARM GAS  C:\Users\Mathieu\AppData\Local\Temp\ccJNHpye.s 			page 35


 965:Generated_Source\PSoC6\pdl\drivers/peripheral/scb/cy_scb_i2c.h **** #define CY_SCB_I2C_MASTER_WR_IN_FIFO   (0x00020000UL)
 966:Generated_Source\PSoC6\pdl\drivers/peripheral/scb/cy_scb_i2c.h **** 
 967:Generated_Source\PSoC6\pdl\drivers/peripheral/scb/cy_scb_i2c.h **** /** The slave NACKed the address. */
 968:Generated_Source\PSoC6\pdl\drivers/peripheral/scb/cy_scb_i2c.h **** #define CY_SCB_I2C_MASTER_ADDR_NAK     (0x00100000UL)
 969:Generated_Source\PSoC6\pdl\drivers/peripheral/scb/cy_scb_i2c.h **** 
 970:Generated_Source\PSoC6\pdl\drivers/peripheral/scb/cy_scb_i2c.h **** /** Write completed before all bytes were sent (last byte was NAKed)
 971:Generated_Source\PSoC6\pdl\drivers/peripheral/scb/cy_scb_i2c.h **** */
 972:Generated_Source\PSoC6\pdl\drivers/peripheral/scb/cy_scb_i2c.h **** #define CY_SCB_I2C_MASTER_DATA_NAK     (0x00200000UL)
 973:Generated_Source\PSoC6\pdl\drivers/peripheral/scb/cy_scb_i2c.h **** 
 974:Generated_Source\PSoC6\pdl\drivers/peripheral/scb/cy_scb_i2c.h **** /** The master lost arbitration, the transaction was aborted */
 975:Generated_Source\PSoC6\pdl\drivers/peripheral/scb/cy_scb_i2c.h **** #define CY_SCB_I2C_MASTER_ARB_LOST     (0x00400000UL)
 976:Generated_Source\PSoC6\pdl\drivers/peripheral/scb/cy_scb_i2c.h **** 
 977:Generated_Source\PSoC6\pdl\drivers/peripheral/scb/cy_scb_i2c.h **** /**
 978:Generated_Source\PSoC6\pdl\drivers/peripheral/scb/cy_scb_i2c.h **** * The master detected an erroneous start or stop, the transaction was aborted
 979:Generated_Source\PSoC6\pdl\drivers/peripheral/scb/cy_scb_i2c.h **** */
 980:Generated_Source\PSoC6\pdl\drivers/peripheral/scb/cy_scb_i2c.h **** #define CY_SCB_I2C_MASTER_BUS_ERR      (0x00800000UL)
 981:Generated_Source\PSoC6\pdl\drivers/peripheral/scb/cy_scb_i2c.h **** 
 982:Generated_Source\PSoC6\pdl\drivers/peripheral/scb/cy_scb_i2c.h **** /**
 983:Generated_Source\PSoC6\pdl\drivers/peripheral/scb/cy_scb_i2c.h **** * The master transaction was aborted and the slave transaction is on-going
 984:Generated_Source\PSoC6\pdl\drivers/peripheral/scb/cy_scb_i2c.h **** * because the slave was addressed before the master generated a start
 985:Generated_Source\PSoC6\pdl\drivers/peripheral/scb/cy_scb_i2c.h **** */
 986:Generated_Source\PSoC6\pdl\drivers/peripheral/scb/cy_scb_i2c.h **** #define CY_SCB_I2C_MASTER_ABORT_START  (0x01000000UL)
 987:Generated_Source\PSoC6\pdl\drivers/peripheral/scb/cy_scb_i2c.h **** /** \} group_scb_i2c_macros_master_status */
 988:Generated_Source\PSoC6\pdl\drivers/peripheral/scb/cy_scb_i2c.h **** 
 989:Generated_Source\PSoC6\pdl\drivers/peripheral/scb/cy_scb_i2c.h **** /**
 990:Generated_Source\PSoC6\pdl\drivers/peripheral/scb/cy_scb_i2c.h **** * \defgroup group_scb_i2c_macros_callback_events I2C Callback Events
 991:Generated_Source\PSoC6\pdl\drivers/peripheral/scb/cy_scb_i2c.h **** * \{
 992:Generated_Source\PSoC6\pdl\drivers/peripheral/scb/cy_scb_i2c.h **** * Macros to check I2C events passed by \ref cy_cb_scb_i2c_handle_events_t callback.
 993:Generated_Source\PSoC6\pdl\drivers/peripheral/scb/cy_scb_i2c.h **** * Each event is encoded in a separate bit, and therefore it is possible to
 994:Generated_Source\PSoC6\pdl\drivers/peripheral/scb/cy_scb_i2c.h **** * notify about multiple events.
 995:Generated_Source\PSoC6\pdl\drivers/peripheral/scb/cy_scb_i2c.h **** */
 996:Generated_Source\PSoC6\pdl\drivers/peripheral/scb/cy_scb_i2c.h **** /**
 997:Generated_Source\PSoC6\pdl\drivers/peripheral/scb/cy_scb_i2c.h **** * Indicates that the slave was addressed and the master wants to read data.
 998:Generated_Source\PSoC6\pdl\drivers/peripheral/scb/cy_scb_i2c.h **** * This event can be used to configure the slave Read buffer.
 999:Generated_Source\PSoC6\pdl\drivers/peripheral/scb/cy_scb_i2c.h **** */
1000:Generated_Source\PSoC6\pdl\drivers/peripheral/scb/cy_scb_i2c.h **** #define CY_SCB_I2C_SLAVE_READ_EVENT            (0x00000001UL)
1001:Generated_Source\PSoC6\pdl\drivers/peripheral/scb/cy_scb_i2c.h **** 
1002:Generated_Source\PSoC6\pdl\drivers/peripheral/scb/cy_scb_i2c.h **** /**
1003:Generated_Source\PSoC6\pdl\drivers/peripheral/scb/cy_scb_i2c.h **** * Indicates that the slave was addressed and the master wants to write data.
1004:Generated_Source\PSoC6\pdl\drivers/peripheral/scb/cy_scb_i2c.h **** * This event can be used to configure the slave Write buffer.
1005:Generated_Source\PSoC6\pdl\drivers/peripheral/scb/cy_scb_i2c.h **** */
1006:Generated_Source\PSoC6\pdl\drivers/peripheral/scb/cy_scb_i2c.h **** #define CY_SCB_I2C_SLAVE_WRITE_EVENT           (0x00000002UL)
1007:Generated_Source\PSoC6\pdl\drivers/peripheral/scb/cy_scb_i2c.h **** 
1008:Generated_Source\PSoC6\pdl\drivers/peripheral/scb/cy_scb_i2c.h **** /**
1009:Generated_Source\PSoC6\pdl\drivers/peripheral/scb/cy_scb_i2c.h **** * All slave data from the configured Read buffer has been loaded into the
1010:Generated_Source\PSoC6\pdl\drivers/peripheral/scb/cy_scb_i2c.h **** * TX FIFO. The content of the Read buffer can be modified. Applicable only
1011:Generated_Source\PSoC6\pdl\drivers/peripheral/scb/cy_scb_i2c.h **** * if the TX FIFO is used.
1012:Generated_Source\PSoC6\pdl\drivers/peripheral/scb/cy_scb_i2c.h **** */
1013:Generated_Source\PSoC6\pdl\drivers/peripheral/scb/cy_scb_i2c.h **** #define CY_SCB_I2C_SLAVE_RD_IN_FIFO_EVENT      (0x00000004UL)
1014:Generated_Source\PSoC6\pdl\drivers/peripheral/scb/cy_scb_i2c.h **** 
1015:Generated_Source\PSoC6\pdl\drivers/peripheral/scb/cy_scb_i2c.h **** /**
1016:Generated_Source\PSoC6\pdl\drivers/peripheral/scb/cy_scb_i2c.h **** * The master has read all data out of the configured Read buffer.
1017:Generated_Source\PSoC6\pdl\drivers/peripheral/scb/cy_scb_i2c.h **** * This event can be used to configure the next Read buffer. If the buffer
1018:Generated_Source\PSoC6\pdl\drivers/peripheral/scb/cy_scb_i2c.h **** * remains empty, the \ref CY_SCB_I2C_DEFAULT_TX bytes are returned to the master.
1019:Generated_Source\PSoC6\pdl\drivers/peripheral/scb/cy_scb_i2c.h **** */
1020:Generated_Source\PSoC6\pdl\drivers/peripheral/scb/cy_scb_i2c.h **** #define CY_SCB_I2C_SLAVE_RD_BUF_EMPTY_EVENT    (0x00000008UL)
1021:Generated_Source\PSoC6\pdl\drivers/peripheral/scb/cy_scb_i2c.h **** 
ARM GAS  C:\Users\Mathieu\AppData\Local\Temp\ccJNHpye.s 			page 36


1022:Generated_Source\PSoC6\pdl\drivers/peripheral/scb/cy_scb_i2c.h **** /**
1023:Generated_Source\PSoC6\pdl\drivers/peripheral/scb/cy_scb_i2c.h **** * Indicates the master completed reading from the slave (set by the master NAK
1024:Generated_Source\PSoC6\pdl\drivers/peripheral/scb/cy_scb_i2c.h **** * or Stop)
1025:Generated_Source\PSoC6\pdl\drivers/peripheral/scb/cy_scb_i2c.h **** */
1026:Generated_Source\PSoC6\pdl\drivers/peripheral/scb/cy_scb_i2c.h **** #define CY_SCB_I2C_SLAVE_RD_CMPLT_EVENT        (0x00000010UL)
1027:Generated_Source\PSoC6\pdl\drivers/peripheral/scb/cy_scb_i2c.h **** 
1028:Generated_Source\PSoC6\pdl\drivers/peripheral/scb/cy_scb_i2c.h **** /**
1029:Generated_Source\PSoC6\pdl\drivers/peripheral/scb/cy_scb_i2c.h **** * Indicates the master completed writing to the slave (set by the master Stop
1030:Generated_Source\PSoC6\pdl\drivers/peripheral/scb/cy_scb_i2c.h **** * or Restart)
1031:Generated_Source\PSoC6\pdl\drivers/peripheral/scb/cy_scb_i2c.h **** */
1032:Generated_Source\PSoC6\pdl\drivers/peripheral/scb/cy_scb_i2c.h **** #define CY_SCB_I2C_SLAVE_WR_CMPLT_EVENT        (0x00000020UL)
1033:Generated_Source\PSoC6\pdl\drivers/peripheral/scb/cy_scb_i2c.h **** 
1034:Generated_Source\PSoC6\pdl\drivers/peripheral/scb/cy_scb_i2c.h **** /**
1035:Generated_Source\PSoC6\pdl\drivers/peripheral/scb/cy_scb_i2c.h **** * Indicates the I2C hardware detected an error.
1036:Generated_Source\PSoC6\pdl\drivers/peripheral/scb/cy_scb_i2c.h **** * Check \ref Cy_SCB_I2C_SlaveGetStatus to determine the source of the error.
1037:Generated_Source\PSoC6\pdl\drivers/peripheral/scb/cy_scb_i2c.h **** */
1038:Generated_Source\PSoC6\pdl\drivers/peripheral/scb/cy_scb_i2c.h **** #define CY_SCB_I2C_SLAVE_ERR_EVENT             (0x00000040UL)
1039:Generated_Source\PSoC6\pdl\drivers/peripheral/scb/cy_scb_i2c.h **** 
1040:Generated_Source\PSoC6\pdl\drivers/peripheral/scb/cy_scb_i2c.h **** /**
1041:Generated_Source\PSoC6\pdl\drivers/peripheral/scb/cy_scb_i2c.h **** * All data specified by \ref Cy_SCB_I2C_MasterWrite has been loaded
1042:Generated_Source\PSoC6\pdl\drivers/peripheral/scb/cy_scb_i2c.h **** * into the TX FIFO. The content of the master write buffer can be modified.
1043:Generated_Source\PSoC6\pdl\drivers/peripheral/scb/cy_scb_i2c.h **** * Applicable only if the TX FIFO is used.
1044:Generated_Source\PSoC6\pdl\drivers/peripheral/scb/cy_scb_i2c.h **** */
1045:Generated_Source\PSoC6\pdl\drivers/peripheral/scb/cy_scb_i2c.h **** #define CY_SCB_I2C_MASTER_WR_IN_FIFO_EVENT     (0x00010000UL)
1046:Generated_Source\PSoC6\pdl\drivers/peripheral/scb/cy_scb_i2c.h **** 
1047:Generated_Source\PSoC6\pdl\drivers/peripheral/scb/cy_scb_i2c.h **** /** The master write started by \ref Cy_SCB_I2C_MasterWrite is complete */
1048:Generated_Source\PSoC6\pdl\drivers/peripheral/scb/cy_scb_i2c.h **** #define CY_SCB_I2C_MASTER_WR_CMPLT_EVENT       (0x00020000UL)
1049:Generated_Source\PSoC6\pdl\drivers/peripheral/scb/cy_scb_i2c.h **** 
1050:Generated_Source\PSoC6\pdl\drivers/peripheral/scb/cy_scb_i2c.h **** /** The master read started by \ref Cy_SCB_I2C_MasterRead is complete */
1051:Generated_Source\PSoC6\pdl\drivers/peripheral/scb/cy_scb_i2c.h **** #define CY_SCB_I2C_MASTER_RD_CMPLT_EVENT       (0x00040000UL)
1052:Generated_Source\PSoC6\pdl\drivers/peripheral/scb/cy_scb_i2c.h **** 
1053:Generated_Source\PSoC6\pdl\drivers/peripheral/scb/cy_scb_i2c.h **** /**
1054:Generated_Source\PSoC6\pdl\drivers/peripheral/scb/cy_scb_i2c.h **** * Indicates the I2C hardware has detected an error. It occurs together with
1055:Generated_Source\PSoC6\pdl\drivers/peripheral/scb/cy_scb_i2c.h **** * \ref CY_SCB_I2C_MASTER_RD_CMPLT_EVENT or \ref CY_SCB_I2C_MASTER_WR_CMPLT_EVENT
1056:Generated_Source\PSoC6\pdl\drivers/peripheral/scb/cy_scb_i2c.h **** * depends on the direction of the transfer.
1057:Generated_Source\PSoC6\pdl\drivers/peripheral/scb/cy_scb_i2c.h **** * Check \ref Cy_SCB_I2C_MasterGetStatus to determine the source of the error.
1058:Generated_Source\PSoC6\pdl\drivers/peripheral/scb/cy_scb_i2c.h **** */
1059:Generated_Source\PSoC6\pdl\drivers/peripheral/scb/cy_scb_i2c.h **** #define CY_SCB_I2C_MASTER_ERR_EVENT            (0x00080000UL)
1060:Generated_Source\PSoC6\pdl\drivers/peripheral/scb/cy_scb_i2c.h **** /** \} group_scb_i2c_macros_callback_events */
1061:Generated_Source\PSoC6\pdl\drivers/peripheral/scb/cy_scb_i2c.h **** 
1062:Generated_Source\PSoC6\pdl\drivers/peripheral/scb/cy_scb_i2c.h **** /**
1063:Generated_Source\PSoC6\pdl\drivers/peripheral/scb/cy_scb_i2c.h **** * \defgroup group_scb_i2c_macros_addr_callback_events I2C Address Callback Events
1064:Generated_Source\PSoC6\pdl\drivers/peripheral/scb/cy_scb_i2c.h **** * Macros to check I2C address events passed by \ref cy_cb_scb_i2c_handle_addr_t callback.
1065:Generated_Source\PSoC6\pdl\drivers/peripheral/scb/cy_scb_i2c.h **** * Each event is encoded in a separate bit and therefore it is possible to
1066:Generated_Source\PSoC6\pdl\drivers/peripheral/scb/cy_scb_i2c.h **** * notify about multiple events.
1067:Generated_Source\PSoC6\pdl\drivers/peripheral/scb/cy_scb_i2c.h **** * \{
1068:Generated_Source\PSoC6\pdl\drivers/peripheral/scb/cy_scb_i2c.h **** */
1069:Generated_Source\PSoC6\pdl\drivers/peripheral/scb/cy_scb_i2c.h **** /**
1070:Generated_Source\PSoC6\pdl\drivers/peripheral/scb/cy_scb_i2c.h **** * Indicates the slave was addressed by the general call address
1071:Generated_Source\PSoC6\pdl\drivers/peripheral/scb/cy_scb_i2c.h **** */
1072:Generated_Source\PSoC6\pdl\drivers/peripheral/scb/cy_scb_i2c.h **** #define CY_SCB_I2C_GENERAL_CALL_EVENT      (0x01UL)
1073:Generated_Source\PSoC6\pdl\drivers/peripheral/scb/cy_scb_i2c.h **** 
1074:Generated_Source\PSoC6\pdl\drivers/peripheral/scb/cy_scb_i2c.h **** /**
1075:Generated_Source\PSoC6\pdl\drivers/peripheral/scb/cy_scb_i2c.h **** * The slave address is in the RX FIFO.
1076:Generated_Source\PSoC6\pdl\drivers/peripheral/scb/cy_scb_i2c.h **** * Note that the address must be read from the RX FIFO using the
1077:Generated_Source\PSoC6\pdl\drivers/peripheral/scb/cy_scb_i2c.h **** * \ref Cy_SCB_ReadRxFifo function.
1078:Generated_Source\PSoC6\pdl\drivers/peripheral/scb/cy_scb_i2c.h **** */
ARM GAS  C:\Users\Mathieu\AppData\Local\Temp\ccJNHpye.s 			page 37


1079:Generated_Source\PSoC6\pdl\drivers/peripheral/scb/cy_scb_i2c.h **** #define CY_SCB_I2C_ADDR_IN_FIFO_EVENT      (0x02UL)
1080:Generated_Source\PSoC6\pdl\drivers/peripheral/scb/cy_scb_i2c.h **** /** \} group_scb_i2c_macros_addr_callback_events */
1081:Generated_Source\PSoC6\pdl\drivers/peripheral/scb/cy_scb_i2c.h **** 
1082:Generated_Source\PSoC6\pdl\drivers/peripheral/scb/cy_scb_i2c.h **** /**
1083:Generated_Source\PSoC6\pdl\drivers/peripheral/scb/cy_scb_i2c.h **** * This value is returned by the slave when there is no data in the
1084:Generated_Source\PSoC6\pdl\drivers/peripheral/scb/cy_scb_i2c.h **** * Read buffer
1085:Generated_Source\PSoC6\pdl\drivers/peripheral/scb/cy_scb_i2c.h **** */
1086:Generated_Source\PSoC6\pdl\drivers/peripheral/scb/cy_scb_i2c.h **** #define CY_SCB_I2C_DEFAULT_TX  (0xFFUL)
1087:Generated_Source\PSoC6\pdl\drivers/peripheral/scb/cy_scb_i2c.h **** 
1088:Generated_Source\PSoC6\pdl\drivers/peripheral/scb/cy_scb_i2c.h **** 
1089:Generated_Source\PSoC6\pdl\drivers/peripheral/scb/cy_scb_i2c.h **** /*******************************************************************************
1090:Generated_Source\PSoC6\pdl\drivers/peripheral/scb/cy_scb_i2c.h **** *                          Internal Constants
1091:Generated_Source\PSoC6\pdl\drivers/peripheral/scb/cy_scb_i2c.h **** *******************************************************************************/
1092:Generated_Source\PSoC6\pdl\drivers/peripheral/scb/cy_scb_i2c.h **** 
1093:Generated_Source\PSoC6\pdl\drivers/peripheral/scb/cy_scb_i2c.h **** /** \cond INTERNAL */
1094:Generated_Source\PSoC6\pdl\drivers/peripheral/scb/cy_scb_i2c.h **** 
1095:Generated_Source\PSoC6\pdl\drivers/peripheral/scb/cy_scb_i2c.h **** /* Slave statuses */
1096:Generated_Source\PSoC6\pdl\drivers/peripheral/scb/cy_scb_i2c.h **** #define CY_SCB_I2C_SLAVE_RD_CLEAR  (CY_SCB_I2C_SLAVE_RD_CMPLT  | CY_SCB_I2C_SLAVE_RD_IN_FIFO | \
1097:Generated_Source\PSoC6\pdl\drivers/peripheral/scb/cy_scb_i2c.h ****                                     CY_SCB_I2C_SLAVE_RD_UNDRFL | CY_SCB_I2C_SLAVE_ARB_LOST   | \
1098:Generated_Source\PSoC6\pdl\drivers/peripheral/scb/cy_scb_i2c.h ****                                     CY_SCB_I2C_SLAVE_BUS_ERR)
1099:Generated_Source\PSoC6\pdl\drivers/peripheral/scb/cy_scb_i2c.h **** 
1100:Generated_Source\PSoC6\pdl\drivers/peripheral/scb/cy_scb_i2c.h **** #define CY_SCB_I2C_SLAVE_WR_CLEAR  (CY_SCB_I2C_SLAVE_WR_CMPLT | CY_SCB_I2C_SLAVE_WR_OVRFL | \
1101:Generated_Source\PSoC6\pdl\drivers/peripheral/scb/cy_scb_i2c.h ****                                     CY_SCB_I2C_SLAVE_ARB_LOST | CY_SCB_I2C_SLAVE_BUS_ERR)
1102:Generated_Source\PSoC6\pdl\drivers/peripheral/scb/cy_scb_i2c.h **** 
1103:Generated_Source\PSoC6\pdl\drivers/peripheral/scb/cy_scb_i2c.h **** /* Master error statuses */
1104:Generated_Source\PSoC6\pdl\drivers/peripheral/scb/cy_scb_i2c.h **** #define CY_SCB_I2C_MASTER_ERR (CY_SCB_I2C_MASTER_ABORT_START | CY_SCB_I2C_MASTER_ADDR_NAK | \
1105:Generated_Source\PSoC6\pdl\drivers/peripheral/scb/cy_scb_i2c.h ****                                CY_SCB_I2C_MASTER_DATA_NAK    | CY_SCB_I2C_MASTER_BUS_ERR  | \
1106:Generated_Source\PSoC6\pdl\drivers/peripheral/scb/cy_scb_i2c.h ****                                CY_SCB_I2C_MASTER_ARB_LOST)
1107:Generated_Source\PSoC6\pdl\drivers/peripheral/scb/cy_scb_i2c.h **** 
1108:Generated_Source\PSoC6\pdl\drivers/peripheral/scb/cy_scb_i2c.h **** /* Master interrupt masks */
1109:Generated_Source\PSoC6\pdl\drivers/peripheral/scb/cy_scb_i2c.h **** #define CY_SCB_I2C_MASTER_INTR     (CY_SCB_MASTER_INTR_I2C_ARB_LOST | CY_SCB_MASTER_INTR_I2C_BUS_ER
1110:Generated_Source\PSoC6\pdl\drivers/peripheral/scb/cy_scb_i2c.h ****                                     CY_SCB_MASTER_INTR_I2C_NACK     | CY_SCB_MASTER_INTR_I2C_STOP)
1111:Generated_Source\PSoC6\pdl\drivers/peripheral/scb/cy_scb_i2c.h **** 
1112:Generated_Source\PSoC6\pdl\drivers/peripheral/scb/cy_scb_i2c.h **** #define CY_SCB_I2C_MASTER_INTR_ALL   (CY_SCB_I2C_MASTER_INTR | CY_SCB_MASTER_INTR_I2C_ACK)
1113:Generated_Source\PSoC6\pdl\drivers/peripheral/scb/cy_scb_i2c.h **** 
1114:Generated_Source\PSoC6\pdl\drivers/peripheral/scb/cy_scb_i2c.h **** #define CY_SCB_I2C_MASTER_INTR_ERR   (CY_SCB_MASTER_INTR_I2C_BUS_ERROR | CY_SCB_MASTER_INTR_I2C_ARB
1115:Generated_Source\PSoC6\pdl\drivers/peripheral/scb/cy_scb_i2c.h **** 
1116:Generated_Source\PSoC6\pdl\drivers/peripheral/scb/cy_scb_i2c.h **** #define CY_SCB_I2C_MASTER_INTR_CMPLT (CY_SCB_I2C_MASTER_INTR_ERR | CY_SCB_MASTER_INTR_I2C_STOP)
1117:Generated_Source\PSoC6\pdl\drivers/peripheral/scb/cy_scb_i2c.h **** 
1118:Generated_Source\PSoC6\pdl\drivers/peripheral/scb/cy_scb_i2c.h **** /* Master statuses. */
1119:Generated_Source\PSoC6\pdl\drivers/peripheral/scb/cy_scb_i2c.h **** #define CY_SCB_I2C_MASTER_TX_BYTE_DONE (CY_SCB_MASTER_INTR_I2C_ACK       | CY_SCB_MASTER_INTR_I2C_N
1120:Generated_Source\PSoC6\pdl\drivers/peripheral/scb/cy_scb_i2c.h ****                                         CY_SCB_MASTER_INTR_I2C_BUS_ERROR | CY_SCB_MASTER_INTR_I2C_A
1121:Generated_Source\PSoC6\pdl\drivers/peripheral/scb/cy_scb_i2c.h **** 
1122:Generated_Source\PSoC6\pdl\drivers/peripheral/scb/cy_scb_i2c.h **** #define CY_SCB_I2C_MASTER_RX_BYTE_DONE (CY_SCB_MASTER_INTR_I2C_BUS_ERROR | CY_SCB_MASTER_INTR_I2C_A
1123:Generated_Source\PSoC6\pdl\drivers/peripheral/scb/cy_scb_i2c.h **** 
1124:Generated_Source\PSoC6\pdl\drivers/peripheral/scb/cy_scb_i2c.h **** #define CY_SCB_I2C_MASTER_STOP_DONE    (CY_SCB_MASTER_INTR_I2C_STOP      | \
1125:Generated_Source\PSoC6\pdl\drivers/peripheral/scb/cy_scb_i2c.h ****                                         CY_SCB_MASTER_INTR_I2C_BUS_ERROR | CY_SCB_MASTER_INTR_I2C_A
1126:Generated_Source\PSoC6\pdl\drivers/peripheral/scb/cy_scb_i2c.h **** 
1127:Generated_Source\PSoC6\pdl\drivers/peripheral/scb/cy_scb_i2c.h **** #define CY_SCB_I2C_MASTER_TIMEOUT_DONE (0x80000000UL)
1128:Generated_Source\PSoC6\pdl\drivers/peripheral/scb/cy_scb_i2c.h **** 
1129:Generated_Source\PSoC6\pdl\drivers/peripheral/scb/cy_scb_i2c.h **** /* The slave interrupt mask */
1130:Generated_Source\PSoC6\pdl\drivers/peripheral/scb/cy_scb_i2c.h **** #define CY_SCB_I2C_SLAVE_INTR      (CY_SCB_SLAVE_INTR_I2C_ADDR_MATCH | CY_SCB_SLAVE_INTR_I2C_GENERA
1131:Generated_Source\PSoC6\pdl\drivers/peripheral/scb/cy_scb_i2c.h ****                                     CY_SCB_SLAVE_INTR_I2C_STOP       | CY_SCB_SLAVE_INTR_I2C_BUS_ER
1132:Generated_Source\PSoC6\pdl\drivers/peripheral/scb/cy_scb_i2c.h ****                                     CY_SCB_SLAVE_INTR_I2C_ARB_LOST)
1133:Generated_Source\PSoC6\pdl\drivers/peripheral/scb/cy_scb_i2c.h **** 
1134:Generated_Source\PSoC6\pdl\drivers/peripheral/scb/cy_scb_i2c.h **** #define CY_SCB_I2C_SLAVE_INTR_NO_STOP   (CY_SCB_I2C_SLAVE_INTR & (uint32_t) ~CY_SCB_SLAVE_INTR_I2C_
1135:Generated_Source\PSoC6\pdl\drivers/peripheral/scb/cy_scb_i2c.h **** 
ARM GAS  C:\Users\Mathieu\AppData\Local\Temp\ccJNHpye.s 			page 38


1136:Generated_Source\PSoC6\pdl\drivers/peripheral/scb/cy_scb_i2c.h **** #define CY_SCB_I2C_SLAVE_INTR_ADDR      (CY_SCB_SLAVE_INTR_I2C_ADDR_MATCH | CY_SCB_SLAVE_INTR_I2C_G
1137:Generated_Source\PSoC6\pdl\drivers/peripheral/scb/cy_scb_i2c.h **** 
1138:Generated_Source\PSoC6\pdl\drivers/peripheral/scb/cy_scb_i2c.h **** #define CY_SCB_I2C_SLAVE_ADDR_DONE      (CY_SCB_I2C_SLAVE_INTR_ADDR)
1139:Generated_Source\PSoC6\pdl\drivers/peripheral/scb/cy_scb_i2c.h **** 
1140:Generated_Source\PSoC6\pdl\drivers/peripheral/scb/cy_scb_i2c.h **** #define CY_SCB_I2C_SLAVE_INTR_NO_ADDR   (CY_SCB_I2C_SLAVE_INTR & (uint32_t) ~CY_SCB_I2C_SLAVE_INTR_
1141:Generated_Source\PSoC6\pdl\drivers/peripheral/scb/cy_scb_i2c.h **** 
1142:Generated_Source\PSoC6\pdl\drivers/peripheral/scb/cy_scb_i2c.h **** #define CY_SCB_I2C_SLAVE_INTR_TX        (CY_SCB_TX_INTR_LEVEL | CY_SCB_TX_INTR_UNDERFLOW)
1143:Generated_Source\PSoC6\pdl\drivers/peripheral/scb/cy_scb_i2c.h **** 
1144:Generated_Source\PSoC6\pdl\drivers/peripheral/scb/cy_scb_i2c.h **** #define CY_SCB_I2C_SLAVE_INTR_ERROR     (CY_SCB_SLAVE_INTR_I2C_BUS_ERROR | CY_SCB_SLAVE_INTR_I2C_AR
1145:Generated_Source\PSoC6\pdl\drivers/peripheral/scb/cy_scb_i2c.h **** 
1146:Generated_Source\PSoC6\pdl\drivers/peripheral/scb/cy_scb_i2c.h **** /* I2C states */
1147:Generated_Source\PSoC6\pdl\drivers/peripheral/scb/cy_scb_i2c.h **** #define CY_SCB_I2C_IDLE              (0x10000000UL)
1148:Generated_Source\PSoC6\pdl\drivers/peripheral/scb/cy_scb_i2c.h **** #define CY_SCB_I2C_IDLE_MASK         (0x10000000UL)
1149:Generated_Source\PSoC6\pdl\drivers/peripheral/scb/cy_scb_i2c.h **** 
1150:Generated_Source\PSoC6\pdl\drivers/peripheral/scb/cy_scb_i2c.h **** /* Master states */
1151:Generated_Source\PSoC6\pdl\drivers/peripheral/scb/cy_scb_i2c.h **** #define CY_SCB_I2C_MASTER_ACTIVE     (0x00100000UL)
1152:Generated_Source\PSoC6\pdl\drivers/peripheral/scb/cy_scb_i2c.h **** #define CY_SCB_I2C_MASTER_WAIT       (0x10100000UL)
1153:Generated_Source\PSoC6\pdl\drivers/peripheral/scb/cy_scb_i2c.h **** #define CY_SCB_I2C_MASTER_RX0        (0x00110000UL)
1154:Generated_Source\PSoC6\pdl\drivers/peripheral/scb/cy_scb_i2c.h **** #define CY_SCB_I2C_MASTER_RX1        (0x00120000UL)
1155:Generated_Source\PSoC6\pdl\drivers/peripheral/scb/cy_scb_i2c.h **** #define CY_SCB_I2C_MASTER_ADDR       (0x10130000UL)
1156:Generated_Source\PSoC6\pdl\drivers/peripheral/scb/cy_scb_i2c.h **** #define CY_SCB_I2C_MASTER_TX         (0x00140000UL)
1157:Generated_Source\PSoC6\pdl\drivers/peripheral/scb/cy_scb_i2c.h **** #define CY_SCB_I2C_MASTER_TX_DONE    (0x00150000UL)
1158:Generated_Source\PSoC6\pdl\drivers/peripheral/scb/cy_scb_i2c.h **** #define CY_SCB_I2C_MASTER_STOP       (0x00160000UL)
1159:Generated_Source\PSoC6\pdl\drivers/peripheral/scb/cy_scb_i2c.h **** #define CY_SCB_I2C_MASTER_WAIT_STOP  (0x00170000UL)
1160:Generated_Source\PSoC6\pdl\drivers/peripheral/scb/cy_scb_i2c.h **** #define CY_SCB_I2C_MASTER_CMPLT      (0x00180000UL)
1161:Generated_Source\PSoC6\pdl\drivers/peripheral/scb/cy_scb_i2c.h **** 
1162:Generated_Source\PSoC6\pdl\drivers/peripheral/scb/cy_scb_i2c.h **** /* Slave states */
1163:Generated_Source\PSoC6\pdl\drivers/peripheral/scb/cy_scb_i2c.h **** #define CY_SCB_I2C_SLAVE_ACTIVE      (0x00001000UL)
1164:Generated_Source\PSoC6\pdl\drivers/peripheral/scb/cy_scb_i2c.h **** #define CY_SCB_I2C_SLAVE_RX_MASK     (0x00001001UL)
1165:Generated_Source\PSoC6\pdl\drivers/peripheral/scb/cy_scb_i2c.h **** #define CY_SCB_I2C_SLAVE_RX          (0x00001001UL)
1166:Generated_Source\PSoC6\pdl\drivers/peripheral/scb/cy_scb_i2c.h **** #define CY_SCB_I2C_SLAVE_TX          (0x00001002UL)
1167:Generated_Source\PSoC6\pdl\drivers/peripheral/scb/cy_scb_i2c.h **** 
1168:Generated_Source\PSoC6\pdl\drivers/peripheral/scb/cy_scb_i2c.h **** /* FIFO size */
1169:Generated_Source\PSoC6\pdl\drivers/peripheral/scb/cy_scb_i2c.h **** #define CY_SCB_I2C_FIFO_SIZE          CY_SCB_FIFO_SIZE
1170:Generated_Source\PSoC6\pdl\drivers/peripheral/scb/cy_scb_i2c.h **** #define CY_SCB_I2C_HALF_FIFO_SIZE     (CY_SCB_FIFO_SIZE / 2UL)
1171:Generated_Source\PSoC6\pdl\drivers/peripheral/scb/cy_scb_i2c.h **** 
1172:Generated_Source\PSoC6\pdl\drivers/peripheral/scb/cy_scb_i2c.h **** #define CY_SCB_I2C_DEFAULT_RETURN    (0xFFUL)
1173:Generated_Source\PSoC6\pdl\drivers/peripheral/scb/cy_scb_i2c.h **** 
1174:Generated_Source\PSoC6\pdl\drivers/peripheral/scb/cy_scb_i2c.h **** /* Convert the timeout in milliseconds to microseconds */
1175:Generated_Source\PSoC6\pdl\drivers/peripheral/scb/cy_scb_i2c.h **** #define CY_SCB_I2C_CONVERT_TIMEOUT_TO_US(timeoutMs)     ((timeoutMs) * 1000UL)
1176:Generated_Source\PSoC6\pdl\drivers/peripheral/scb/cy_scb_i2c.h **** 
1177:Generated_Source\PSoC6\pdl\drivers/peripheral/scb/cy_scb_i2c.h **** /* I2C data rates max (Hz): standard, fast and fast plus modes */
1178:Generated_Source\PSoC6\pdl\drivers/peripheral/scb/cy_scb_i2c.h **** #define CY_SCB_I2C_STD_DATA_RATE    (100000U)
1179:Generated_Source\PSoC6\pdl\drivers/peripheral/scb/cy_scb_i2c.h **** #define CY_SCB_I2C_FST_DATA_RATE    (400000U)
1180:Generated_Source\PSoC6\pdl\drivers/peripheral/scb/cy_scb_i2c.h **** #define CY_SCB_I2C_FSTP_DATA_RATE  (1000000U)
1181:Generated_Source\PSoC6\pdl\drivers/peripheral/scb/cy_scb_i2c.h **** 
1182:Generated_Source\PSoC6\pdl\drivers/peripheral/scb/cy_scb_i2c.h **** /* Slave clock limits */
1183:Generated_Source\PSoC6\pdl\drivers/peripheral/scb/cy_scb_i2c.h **** #define CY_SCB_I2C_SLAVE_STD_CLK_MIN    (1550000U)
1184:Generated_Source\PSoC6\pdl\drivers/peripheral/scb/cy_scb_i2c.h **** #define CY_SCB_I2C_SLAVE_STD_CLK_MAX   (12800000U)
1185:Generated_Source\PSoC6\pdl\drivers/peripheral/scb/cy_scb_i2c.h **** #define CY_SCB_I2C_SLAVE_FST_CLK_MIN    (7820000U)
1186:Generated_Source\PSoC6\pdl\drivers/peripheral/scb/cy_scb_i2c.h **** #define CY_SCB_I2C_SLAVE_FST_CLK_MAX   (15380000U)
1187:Generated_Source\PSoC6\pdl\drivers/peripheral/scb/cy_scb_i2c.h **** #define CY_SCB_I2C_SLAVE_FSTP_CLK_MIN  (15840000U)
1188:Generated_Source\PSoC6\pdl\drivers/peripheral/scb/cy_scb_i2c.h **** #define CY_SCB_I2C_SLAVE_FSTP_CLK_MAX  (89000000U)
1189:Generated_Source\PSoC6\pdl\drivers/peripheral/scb/cy_scb_i2c.h **** 
1190:Generated_Source\PSoC6\pdl\drivers/peripheral/scb/cy_scb_i2c.h **** /* Master clock (Hz) and duty cycle limits for standard mode */
1191:Generated_Source\PSoC6\pdl\drivers/peripheral/scb/cy_scb_i2c.h **** #define CY_SCB_I2C_MASTER_STD_CLK_MIN           (1550000U)
1192:Generated_Source\PSoC6\pdl\drivers/peripheral/scb/cy_scb_i2c.h **** #define CY_SCB_I2C_MASTER_STD_CLK_MAX           (3200000U)
ARM GAS  C:\Users\Mathieu\AppData\Local\Temp\ccJNHpye.s 			page 39


1193:Generated_Source\PSoC6\pdl\drivers/peripheral/scb/cy_scb_i2c.h **** #define CY_SCB_I2C_MASTER_STD_LOW_PHASE_MIN     (8U)
1194:Generated_Source\PSoC6\pdl\drivers/peripheral/scb/cy_scb_i2c.h **** #define CY_SCB_I2C_MASTER_STD_HIGH_PHASE_MIN    (8U)
1195:Generated_Source\PSoC6\pdl\drivers/peripheral/scb/cy_scb_i2c.h **** 
1196:Generated_Source\PSoC6\pdl\drivers/peripheral/scb/cy_scb_i2c.h **** /* Master clock (Hz) and duty cycle limits for fast mode */
1197:Generated_Source\PSoC6\pdl\drivers/peripheral/scb/cy_scb_i2c.h **** #define CY_SCB_I2C_MASTER_FST_CLK_MIN           (7820000U)
1198:Generated_Source\PSoC6\pdl\drivers/peripheral/scb/cy_scb_i2c.h **** #define CY_SCB_I2C_MASTER_FST_CLK_MAX           (10000000U)
1199:Generated_Source\PSoC6\pdl\drivers/peripheral/scb/cy_scb_i2c.h **** #define CY_SCB_I2C_MASTER_FST_LOW_PHASE_MIN     (13U)
1200:Generated_Source\PSoC6\pdl\drivers/peripheral/scb/cy_scb_i2c.h **** #define CY_SCB_I2C_MASTER_FST_HIGH_PHASE_MIN    (8U)
1201:Generated_Source\PSoC6\pdl\drivers/peripheral/scb/cy_scb_i2c.h **** 
1202:Generated_Source\PSoC6\pdl\drivers/peripheral/scb/cy_scb_i2c.h **** /* Master clock (Hz) and duty cycle limits for fast plus mode */
1203:Generated_Source\PSoC6\pdl\drivers/peripheral/scb/cy_scb_i2c.h **** #define CY_SCB_I2C_MASTER_FSTP_CLK_MIN          (14320000U)
1204:Generated_Source\PSoC6\pdl\drivers/peripheral/scb/cy_scb_i2c.h **** #define CY_SCB_I2C_MASTER_FSTP_CLK_MAX          (25800000U)
1205:Generated_Source\PSoC6\pdl\drivers/peripheral/scb/cy_scb_i2c.h **** #define CY_SCB_I2C_MASTER_FSTP_LOW_PHASE_MIN    (9U)
1206:Generated_Source\PSoC6\pdl\drivers/peripheral/scb/cy_scb_i2c.h **** #define CY_SCB_I2C_MASTER_FSTP_HIGH_PHASE_MIN   (6U)
1207:Generated_Source\PSoC6\pdl\drivers/peripheral/scb/cy_scb_i2c.h **** 
1208:Generated_Source\PSoC6\pdl\drivers/peripheral/scb/cy_scb_i2c.h **** /* SCL low and high time in ns. Takes into account tF and tR */
1209:Generated_Source\PSoC6\pdl\drivers/peripheral/scb/cy_scb_i2c.h **** #define CY_SCB_I2C_MASTER_STD_SCL_LOW   (5000U) /* tLOW  + tF = 4700 + 300  */
1210:Generated_Source\PSoC6\pdl\drivers/peripheral/scb/cy_scb_i2c.h **** #define CY_SCB_I2C_MASTER_STD_SCL_HIGH  (5000U) /* tHIGH + tR = 4000 + 1000 */
1211:Generated_Source\PSoC6\pdl\drivers/peripheral/scb/cy_scb_i2c.h **** #define CY_SCB_I2C_MASTER_FST_SCL_LOW   (1600U) /* tLOW  + tF = 1300 + 300  */
1212:Generated_Source\PSoC6\pdl\drivers/peripheral/scb/cy_scb_i2c.h **** #define CY_SCB_I2C_MASTER_FST_SCL_HIGH   (900U) /* tHIGH + tR = 600 + 300   */
1213:Generated_Source\PSoC6\pdl\drivers/peripheral/scb/cy_scb_i2c.h **** #define CY_SCB_I2C_MASTER_FSTP_SCL_LOW   (620U) /* tLOW  + tF = 500 + 120   */
1214:Generated_Source\PSoC6\pdl\drivers/peripheral/scb/cy_scb_i2c.h **** #define CY_SCB_I2C_MASTER_FSTP_SCL_HIGH  (380U) /* tHIGH + tR = 260 + 120   */
1215:Generated_Source\PSoC6\pdl\drivers/peripheral/scb/cy_scb_i2c.h **** 
1216:Generated_Source\PSoC6\pdl\drivers/peripheral/scb/cy_scb_i2c.h **** /* Master duty cycle limits */
1217:Generated_Source\PSoC6\pdl\drivers/peripheral/scb/cy_scb_i2c.h **** #define CY_SCB_I2C_LOW_PHASE_MAX    (16U)
1218:Generated_Source\PSoC6\pdl\drivers/peripheral/scb/cy_scb_i2c.h **** #define CY_SCB_I2C_HIGH_PHASE_MAX   (16U)
1219:Generated_Source\PSoC6\pdl\drivers/peripheral/scb/cy_scb_i2c.h **** #define CY_SCB_I2C_DUTY_CYCLE_MAX   (CY_SCB_I2C_LOW_PHASE_MAX + CY_SCB_I2C_HIGH_PHASE_MAX)
1220:Generated_Source\PSoC6\pdl\drivers/peripheral/scb/cy_scb_i2c.h **** 
1221:Generated_Source\PSoC6\pdl\drivers/peripheral/scb/cy_scb_i2c.h **** /* Analog filter settings. */
1222:Generated_Source\PSoC6\pdl\drivers/peripheral/scb/cy_scb_i2c.h **** #define CY_SCB_I2C_ENABLE_ANALOG_FITLER    (CY_SCB_I2C_CFG_DEF_VAL)
1223:Generated_Source\PSoC6\pdl\drivers/peripheral/scb/cy_scb_i2c.h **** #define CY_SCB_I2C_DISABLE_ANALOG_FITLER   (CY_SCB_I2C_CFG_DEF_VAL & \
1224:Generated_Source\PSoC6\pdl\drivers/peripheral/scb/cy_scb_i2c.h ****                                             (uint32_t) ~(SCB_I2C_CFG_SDA_IN_FILT_SEL_Msk | \
1225:Generated_Source\PSoC6\pdl\drivers/peripheral/scb/cy_scb_i2c.h ****                                                          SCB_I2C_CFG_SCL_IN_FILT_SEL_Msk))
1226:Generated_Source\PSoC6\pdl\drivers/peripheral/scb/cy_scb_i2c.h **** 
1227:Generated_Source\PSoC6\pdl\drivers/peripheral/scb/cy_scb_i2c.h **** #define CY_SCB_I2C_IS_MODE_VALID(mode)      ( (CY_SCB_I2C_SLAVE  == (mode)) || \
1228:Generated_Source\PSoC6\pdl\drivers/peripheral/scb/cy_scb_i2c.h ****                                               (CY_SCB_I2C_MASTER == (mode)) || \
1229:Generated_Source\PSoC6\pdl\drivers/peripheral/scb/cy_scb_i2c.h ****                                               (CY_SCB_I2C_MASTER_SLAVE == (mode)) )
1230:Generated_Source\PSoC6\pdl\drivers/peripheral/scb/cy_scb_i2c.h **** 
1231:Generated_Source\PSoC6\pdl\drivers/peripheral/scb/cy_scb_i2c.h **** #define CY_SCB_I2C_IS_RW_BIT_VALID(dir)     ( (CY_SCB_I2C_WRITE_XFER == (dir)) || \
1232:Generated_Source\PSoC6\pdl\drivers/peripheral/scb/cy_scb_i2c.h ****                                               (CY_SCB_I2C_READ_XFER  == (dir)) )
1233:Generated_Source\PSoC6\pdl\drivers/peripheral/scb/cy_scb_i2c.h **** 
1234:Generated_Source\PSoC6\pdl\drivers/peripheral/scb/cy_scb_i2c.h **** #define CY_SCB_I2C_IS_RESPONSE_VALID(cmd)   ( (CY_SCB_I2C_ACK == (cmd))  || \
1235:Generated_Source\PSoC6\pdl\drivers/peripheral/scb/cy_scb_i2c.h ****                                               (CY_SCB_I2C_NAK == (cmd)) )
1236:Generated_Source\PSoC6\pdl\drivers/peripheral/scb/cy_scb_i2c.h **** 
1237:Generated_Source\PSoC6\pdl\drivers/peripheral/scb/cy_scb_i2c.h **** #define CY_SCB_I2C_IS_ADDR_MASK_VALID(mask)         ( (0U == ((mask) & 0x01U)) )
1238:Generated_Source\PSoC6\pdl\drivers/peripheral/scb/cy_scb_i2c.h **** 
1239:Generated_Source\PSoC6\pdl\drivers/peripheral/scb/cy_scb_i2c.h **** #define CY_SCB_I2C_IS_PHASE_OVERSAMPLE_VALID(phaseOvs)  ((phaseOvs) <= 16U)
1240:Generated_Source\PSoC6\pdl\drivers/peripheral/scb/cy_scb_i2c.h **** 
1241:Generated_Source\PSoC6\pdl\drivers/peripheral/scb/cy_scb_i2c.h **** #define CY_SCB_I2C_IS_DATA_RATE_VALID(dataRateHz)   ( ((dataRateHz) > 0UL) && \
1242:Generated_Source\PSoC6\pdl\drivers/peripheral/scb/cy_scb_i2c.h ****                                                       ((dataRateHz) <= CY_SCB_I2C_FSTP_DATA_RATE) )
1243:Generated_Source\PSoC6\pdl\drivers/peripheral/scb/cy_scb_i2c.h **** 
1244:Generated_Source\PSoC6\pdl\drivers/peripheral/scb/cy_scb_i2c.h **** #define CY_SCB_I2C_IS_TIMEOUT_VALID(timeoutMs)              ( (timeoutMs) <= (0xFFFFFFFFUL / 1000UL
1245:Generated_Source\PSoC6\pdl\drivers/peripheral/scb/cy_scb_i2c.h **** #define CY_SCB_I2C_IS_LOW_PHASE_CYCLES_VALID(clockCycles)   ( ((clockCycles) >= 7UL) && ((clockCycl
1246:Generated_Source\PSoC6\pdl\drivers/peripheral/scb/cy_scb_i2c.h **** #define CY_SCB_I2C_IS_HIGH_PHASE_CYCLES_VALID(clockCycles)  ( ((clockCycles) >= 5UL) && ((clockCycl
1247:Generated_Source\PSoC6\pdl\drivers/peripheral/scb/cy_scb_i2c.h **** 
1248:Generated_Source\PSoC6\pdl\drivers/peripheral/scb/cy_scb_i2c.h **** /** \endcond */
1249:Generated_Source\PSoC6\pdl\drivers/peripheral/scb/cy_scb_i2c.h **** 
ARM GAS  C:\Users\Mathieu\AppData\Local\Temp\ccJNHpye.s 			page 40


1250:Generated_Source\PSoC6\pdl\drivers/peripheral/scb/cy_scb_i2c.h **** /** \} group_scb_i2c_macros */
1251:Generated_Source\PSoC6\pdl\drivers/peripheral/scb/cy_scb_i2c.h **** 
1252:Generated_Source\PSoC6\pdl\drivers/peripheral/scb/cy_scb_i2c.h **** 
1253:Generated_Source\PSoC6\pdl\drivers/peripheral/scb/cy_scb_i2c.h **** /*******************************************************************************
1254:Generated_Source\PSoC6\pdl\drivers/peripheral/scb/cy_scb_i2c.h **** *                     In-line Function Implementation
1255:Generated_Source\PSoC6\pdl\drivers/peripheral/scb/cy_scb_i2c.h **** *******************************************************************************/
1256:Generated_Source\PSoC6\pdl\drivers/peripheral/scb/cy_scb_i2c.h **** 
1257:Generated_Source\PSoC6\pdl\drivers/peripheral/scb/cy_scb_i2c.h **** /**
1258:Generated_Source\PSoC6\pdl\drivers/peripheral/scb/cy_scb_i2c.h **** * \addtogroup group_scb_i2c_general_functions
1259:Generated_Source\PSoC6\pdl\drivers/peripheral/scb/cy_scb_i2c.h **** * \{
1260:Generated_Source\PSoC6\pdl\drivers/peripheral/scb/cy_scb_i2c.h **** */
1261:Generated_Source\PSoC6\pdl\drivers/peripheral/scb/cy_scb_i2c.h **** 
1262:Generated_Source\PSoC6\pdl\drivers/peripheral/scb/cy_scb_i2c.h **** /*******************************************************************************
1263:Generated_Source\PSoC6\pdl\drivers/peripheral/scb/cy_scb_i2c.h **** * Function Name: Cy_SCB_I2C_Enable
1264:Generated_Source\PSoC6\pdl\drivers/peripheral/scb/cy_scb_i2c.h **** ****************************************************************************//**
1265:Generated_Source\PSoC6\pdl\drivers/peripheral/scb/cy_scb_i2c.h **** *
1266:Generated_Source\PSoC6\pdl\drivers/peripheral/scb/cy_scb_i2c.h **** * Enables the SCB block for the I2C operation
1267:Generated_Source\PSoC6\pdl\drivers/peripheral/scb/cy_scb_i2c.h **** *
1268:Generated_Source\PSoC6\pdl\drivers/peripheral/scb/cy_scb_i2c.h **** * \param base
1269:Generated_Source\PSoC6\pdl\drivers/peripheral/scb/cy_scb_i2c.h **** * The pointer to the I2C SCB instance.
1270:Generated_Source\PSoC6\pdl\drivers/peripheral/scb/cy_scb_i2c.h **** *
1271:Generated_Source\PSoC6\pdl\drivers/peripheral/scb/cy_scb_i2c.h **** *******************************************************************************/
1272:Generated_Source\PSoC6\pdl\drivers/peripheral/scb/cy_scb_i2c.h **** __STATIC_INLINE void Cy_SCB_I2C_Enable(CySCB_Type *base)
1273:Generated_Source\PSoC6\pdl\drivers/peripheral/scb/cy_scb_i2c.h **** {
1274:Generated_Source\PSoC6\pdl\drivers/peripheral/scb/cy_scb_i2c.h ****     SCB_CTRL(base) |= SCB_CTRL_ENABLED_Msk;
1275:Generated_Source\PSoC6\pdl\drivers/peripheral/scb/cy_scb_i2c.h **** }
1276:Generated_Source\PSoC6\pdl\drivers/peripheral/scb/cy_scb_i2c.h **** 
1277:Generated_Source\PSoC6\pdl\drivers/peripheral/scb/cy_scb_i2c.h **** 
1278:Generated_Source\PSoC6\pdl\drivers/peripheral/scb/cy_scb_i2c.h **** /*******************************************************************************
1279:Generated_Source\PSoC6\pdl\drivers/peripheral/scb/cy_scb_i2c.h **** * Function Name: Cy_SCB_I2C_IsBusBusy
1280:Generated_Source\PSoC6\pdl\drivers/peripheral/scb/cy_scb_i2c.h **** ****************************************************************************//**
1281:Generated_Source\PSoC6\pdl\drivers/peripheral/scb/cy_scb_i2c.h **** *
1282:Generated_Source\PSoC6\pdl\drivers/peripheral/scb/cy_scb_i2c.h **** * Checks whether the I2C bus is busy.
1283:Generated_Source\PSoC6\pdl\drivers/peripheral/scb/cy_scb_i2c.h **** *
1284:Generated_Source\PSoC6\pdl\drivers/peripheral/scb/cy_scb_i2c.h **** * \param base
1285:Generated_Source\PSoC6\pdl\drivers/peripheral/scb/cy_scb_i2c.h **** * The pointer to the I2C SCB instance.
1286:Generated_Source\PSoC6\pdl\drivers/peripheral/scb/cy_scb_i2c.h **** *
1287:Generated_Source\PSoC6\pdl\drivers/peripheral/scb/cy_scb_i2c.h **** * \return
1288:Generated_Source\PSoC6\pdl\drivers/peripheral/scb/cy_scb_i2c.h **** * A bus status: busy or not busy.
1289:Generated_Source\PSoC6\pdl\drivers/peripheral/scb/cy_scb_i2c.h **** *
1290:Generated_Source\PSoC6\pdl\drivers/peripheral/scb/cy_scb_i2c.h **** * \note
1291:Generated_Source\PSoC6\pdl\drivers/peripheral/scb/cy_scb_i2c.h **** * After the SCB block is enabled or reset, the valid bus busy-status returns
1292:Generated_Source\PSoC6\pdl\drivers/peripheral/scb/cy_scb_i2c.h **** * after half of the SCL period.
1293:Generated_Source\PSoC6\pdl\drivers/peripheral/scb/cy_scb_i2c.h **** *
1294:Generated_Source\PSoC6\pdl\drivers/peripheral/scb/cy_scb_i2c.h **** *******************************************************************************/
1295:Generated_Source\PSoC6\pdl\drivers/peripheral/scb/cy_scb_i2c.h **** __STATIC_INLINE bool Cy_SCB_I2C_IsBusBusy(CySCB_Type const *base)
1296:Generated_Source\PSoC6\pdl\drivers/peripheral/scb/cy_scb_i2c.h **** {
1297:Generated_Source\PSoC6\pdl\drivers/peripheral/scb/cy_scb_i2c.h ****     return _FLD2BOOL(SCB_I2C_STATUS_BUS_BUSY, SCB_I2C_STATUS(base));
1298:Generated_Source\PSoC6\pdl\drivers/peripheral/scb/cy_scb_i2c.h **** }
1299:Generated_Source\PSoC6\pdl\drivers/peripheral/scb/cy_scb_i2c.h **** 
1300:Generated_Source\PSoC6\pdl\drivers/peripheral/scb/cy_scb_i2c.h **** 
1301:Generated_Source\PSoC6\pdl\drivers/peripheral/scb/cy_scb_i2c.h **** /*******************************************************************************
1302:Generated_Source\PSoC6\pdl\drivers/peripheral/scb/cy_scb_i2c.h **** * Function Name: Cy_SCB_I2C_SlaveSetAddress
1303:Generated_Source\PSoC6\pdl\drivers/peripheral/scb/cy_scb_i2c.h **** ****************************************************************************//**
1304:Generated_Source\PSoC6\pdl\drivers/peripheral/scb/cy_scb_i2c.h **** *
1305:Generated_Source\PSoC6\pdl\drivers/peripheral/scb/cy_scb_i2c.h **** * Sets the slave address for the I2C slave.
1306:Generated_Source\PSoC6\pdl\drivers/peripheral/scb/cy_scb_i2c.h **** *
ARM GAS  C:\Users\Mathieu\AppData\Local\Temp\ccJNHpye.s 			page 41


1307:Generated_Source\PSoC6\pdl\drivers/peripheral/scb/cy_scb_i2c.h **** * \param base
1308:Generated_Source\PSoC6\pdl\drivers/peripheral/scb/cy_scb_i2c.h **** * The pointer to the I2C SCB instance.
1309:Generated_Source\PSoC6\pdl\drivers/peripheral/scb/cy_scb_i2c.h **** *
1310:Generated_Source\PSoC6\pdl\drivers/peripheral/scb/cy_scb_i2c.h **** * \param addr
1311:Generated_Source\PSoC6\pdl\drivers/peripheral/scb/cy_scb_i2c.h **** * The 7-bit right justified slave address.
1312:Generated_Source\PSoC6\pdl\drivers/peripheral/scb/cy_scb_i2c.h **** *
1313:Generated_Source\PSoC6\pdl\drivers/peripheral/scb/cy_scb_i2c.h **** *******************************************************************************/
1314:Generated_Source\PSoC6\pdl\drivers/peripheral/scb/cy_scb_i2c.h **** __STATIC_INLINE void Cy_SCB_I2C_SlaveSetAddress(CySCB_Type *base, uint8_t addr)
1315:Generated_Source\PSoC6\pdl\drivers/peripheral/scb/cy_scb_i2c.h **** {
1316:Generated_Source\PSoC6\pdl\drivers/peripheral/scb/cy_scb_i2c.h ****     CY_ASSERT_L2(CY_SCB_IS_I2C_ADDR_VALID(addr));
1317:Generated_Source\PSoC6\pdl\drivers/peripheral/scb/cy_scb_i2c.h **** 
1318:Generated_Source\PSoC6\pdl\drivers/peripheral/scb/cy_scb_i2c.h ****     CY_REG32_CLR_SET(SCB_RX_MATCH(base), SCB_RX_MATCH_ADDR, ((uint32_t)((uint32_t) addr << 1UL)));
1319:Generated_Source\PSoC6\pdl\drivers/peripheral/scb/cy_scb_i2c.h **** }
1320:Generated_Source\PSoC6\pdl\drivers/peripheral/scb/cy_scb_i2c.h **** 
1321:Generated_Source\PSoC6\pdl\drivers/peripheral/scb/cy_scb_i2c.h **** 
1322:Generated_Source\PSoC6\pdl\drivers/peripheral/scb/cy_scb_i2c.h **** /*******************************************************************************
1323:Generated_Source\PSoC6\pdl\drivers/peripheral/scb/cy_scb_i2c.h **** * Function Name: Cy_SCB_I2C_SlaveGetAddress
1324:Generated_Source\PSoC6\pdl\drivers/peripheral/scb/cy_scb_i2c.h **** ****************************************************************************//**
1325:Generated_Source\PSoC6\pdl\drivers/peripheral/scb/cy_scb_i2c.h **** *
1326:Generated_Source\PSoC6\pdl\drivers/peripheral/scb/cy_scb_i2c.h **** * Returns the slave address of the I2C slave.
1327:Generated_Source\PSoC6\pdl\drivers/peripheral/scb/cy_scb_i2c.h **** *
1328:Generated_Source\PSoC6\pdl\drivers/peripheral/scb/cy_scb_i2c.h **** * \param base
1329:Generated_Source\PSoC6\pdl\drivers/peripheral/scb/cy_scb_i2c.h **** * The pointer to the I2C SCB instance.
1330:Generated_Source\PSoC6\pdl\drivers/peripheral/scb/cy_scb_i2c.h **** *
1331:Generated_Source\PSoC6\pdl\drivers/peripheral/scb/cy_scb_i2c.h **** * \return
1332:Generated_Source\PSoC6\pdl\drivers/peripheral/scb/cy_scb_i2c.h **** * The 7-bit right justified slave address.
1333:Generated_Source\PSoC6\pdl\drivers/peripheral/scb/cy_scb_i2c.h **** *
1334:Generated_Source\PSoC6\pdl\drivers/peripheral/scb/cy_scb_i2c.h **** *******************************************************************************/
1335:Generated_Source\PSoC6\pdl\drivers/peripheral/scb/cy_scb_i2c.h **** __STATIC_INLINE uint32_t Cy_SCB_I2C_SlaveGetAddress(CySCB_Type const *base)
1336:Generated_Source\PSoC6\pdl\drivers/peripheral/scb/cy_scb_i2c.h **** {
1337:Generated_Source\PSoC6\pdl\drivers/peripheral/scb/cy_scb_i2c.h ****     return (_FLD2VAL(SCB_RX_MATCH_ADDR, SCB_RX_MATCH(base)) >> 1UL);
1338:Generated_Source\PSoC6\pdl\drivers/peripheral/scb/cy_scb_i2c.h **** }
1339:Generated_Source\PSoC6\pdl\drivers/peripheral/scb/cy_scb_i2c.h **** 
1340:Generated_Source\PSoC6\pdl\drivers/peripheral/scb/cy_scb_i2c.h **** 
1341:Generated_Source\PSoC6\pdl\drivers/peripheral/scb/cy_scb_i2c.h **** /*******************************************************************************
1342:Generated_Source\PSoC6\pdl\drivers/peripheral/scb/cy_scb_i2c.h **** * Function Name: Cy_SCB_I2C_SlaveSetAddressMask
1343:Generated_Source\PSoC6\pdl\drivers/peripheral/scb/cy_scb_i2c.h **** ****************************************************************************//**
1344:Generated_Source\PSoC6\pdl\drivers/peripheral/scb/cy_scb_i2c.h **** *
1345:Generated_Source\PSoC6\pdl\drivers/peripheral/scb/cy_scb_i2c.h **** * Sets the slave address mask for the I2C slave. The LSBit must always be 0.
1346:Generated_Source\PSoC6\pdl\drivers/peripheral/scb/cy_scb_i2c.h **** * In all other bit positions a 1 indicates that the incoming address must match
1347:Generated_Source\PSoC6\pdl\drivers/peripheral/scb/cy_scb_i2c.h **** * the corresponding bit in the slave address. A 0 in the mask means that the
1348:Generated_Source\PSoC6\pdl\drivers/peripheral/scb/cy_scb_i2c.h **** * incoming address does not need to match.
1349:Generated_Source\PSoC6\pdl\drivers/peripheral/scb/cy_scb_i2c.h **** * Example Slave Address = 0x0C. Slave Address Mask = 0x08. This means that the
1350:Generated_Source\PSoC6\pdl\drivers/peripheral/scb/cy_scb_i2c.h **** * hardware will accept both 0x08 and 0x0C as valid addresses.
1351:Generated_Source\PSoC6\pdl\drivers/peripheral/scb/cy_scb_i2c.h **** *
1352:Generated_Source\PSoC6\pdl\drivers/peripheral/scb/cy_scb_i2c.h **** * \param base
1353:Generated_Source\PSoC6\pdl\drivers/peripheral/scb/cy_scb_i2c.h **** * The pointer to the I2C SCB instance.
1354:Generated_Source\PSoC6\pdl\drivers/peripheral/scb/cy_scb_i2c.h **** *
1355:Generated_Source\PSoC6\pdl\drivers/peripheral/scb/cy_scb_i2c.h **** * \param addrMask
1356:Generated_Source\PSoC6\pdl\drivers/peripheral/scb/cy_scb_i2c.h **** * The 8-bit address mask, the upper 7 bits correspond to the slave address.
1357:Generated_Source\PSoC6\pdl\drivers/peripheral/scb/cy_scb_i2c.h **** * LSBit must always be 0.
1358:Generated_Source\PSoC6\pdl\drivers/peripheral/scb/cy_scb_i2c.h **** *
1359:Generated_Source\PSoC6\pdl\drivers/peripheral/scb/cy_scb_i2c.h **** *******************************************************************************/
1360:Generated_Source\PSoC6\pdl\drivers/peripheral/scb/cy_scb_i2c.h **** __STATIC_INLINE void Cy_SCB_I2C_SlaveSetAddressMask(CySCB_Type *base, uint8_t addrMask)
1361:Generated_Source\PSoC6\pdl\drivers/peripheral/scb/cy_scb_i2c.h **** {
1362:Generated_Source\PSoC6\pdl\drivers/peripheral/scb/cy_scb_i2c.h ****     CY_ASSERT_L2(CY_SCB_I2C_IS_ADDR_MASK_VALID(addrMask));
1363:Generated_Source\PSoC6\pdl\drivers/peripheral/scb/cy_scb_i2c.h **** 
ARM GAS  C:\Users\Mathieu\AppData\Local\Temp\ccJNHpye.s 			page 42


1364:Generated_Source\PSoC6\pdl\drivers/peripheral/scb/cy_scb_i2c.h ****     CY_REG32_CLR_SET(SCB_RX_MATCH(base), SCB_RX_MATCH_MASK, ((uint32_t) addrMask));
1365:Generated_Source\PSoC6\pdl\drivers/peripheral/scb/cy_scb_i2c.h **** }
1366:Generated_Source\PSoC6\pdl\drivers/peripheral/scb/cy_scb_i2c.h **** 
1367:Generated_Source\PSoC6\pdl\drivers/peripheral/scb/cy_scb_i2c.h **** 
1368:Generated_Source\PSoC6\pdl\drivers/peripheral/scb/cy_scb_i2c.h **** /*******************************************************************************
1369:Generated_Source\PSoC6\pdl\drivers/peripheral/scb/cy_scb_i2c.h **** * Function Name: Cy_SCB_I2C_SlaveGetAddressMask
1370:Generated_Source\PSoC6\pdl\drivers/peripheral/scb/cy_scb_i2c.h **** ****************************************************************************//**
1371:Generated_Source\PSoC6\pdl\drivers/peripheral/scb/cy_scb_i2c.h **** *
1372:Generated_Source\PSoC6\pdl\drivers/peripheral/scb/cy_scb_i2c.h **** * Returns the slave address mask.
1373:Generated_Source\PSoC6\pdl\drivers/peripheral/scb/cy_scb_i2c.h **** *
1374:Generated_Source\PSoC6\pdl\drivers/peripheral/scb/cy_scb_i2c.h **** * \param base
1375:Generated_Source\PSoC6\pdl\drivers/peripheral/scb/cy_scb_i2c.h **** * The pointer to the I2C SCB instance.
1376:Generated_Source\PSoC6\pdl\drivers/peripheral/scb/cy_scb_i2c.h **** *
1377:Generated_Source\PSoC6\pdl\drivers/peripheral/scb/cy_scb_i2c.h **** * \return
1378:Generated_Source\PSoC6\pdl\drivers/peripheral/scb/cy_scb_i2c.h **** * The 8-bit address mask, the upper 7 bits correspond to the slave address.
1379:Generated_Source\PSoC6\pdl\drivers/peripheral/scb/cy_scb_i2c.h **** * LSBit must always be 0.
1380:Generated_Source\PSoC6\pdl\drivers/peripheral/scb/cy_scb_i2c.h **** *
1381:Generated_Source\PSoC6\pdl\drivers/peripheral/scb/cy_scb_i2c.h **** *******************************************************************************/
1382:Generated_Source\PSoC6\pdl\drivers/peripheral/scb/cy_scb_i2c.h **** __STATIC_INLINE uint32_t Cy_SCB_I2C_SlaveGetAddressMask(CySCB_Type const *base)
1383:Generated_Source\PSoC6\pdl\drivers/peripheral/scb/cy_scb_i2c.h **** {
1384:Generated_Source\PSoC6\pdl\drivers/peripheral/scb/cy_scb_i2c.h ****     return _FLD2VAL(SCB_RX_MATCH_MASK, SCB_RX_MATCH(base));
1385:Generated_Source\PSoC6\pdl\drivers/peripheral/scb/cy_scb_i2c.h **** }
1386:Generated_Source\PSoC6\pdl\drivers/peripheral/scb/cy_scb_i2c.h **** 
1387:Generated_Source\PSoC6\pdl\drivers/peripheral/scb/cy_scb_i2c.h **** 
1388:Generated_Source\PSoC6\pdl\drivers/peripheral/scb/cy_scb_i2c.h **** /*******************************************************************************
1389:Generated_Source\PSoC6\pdl\drivers/peripheral/scb/cy_scb_i2c.h **** * Function Name: Cy_SCB_I2C_MasterSetLowPhaseDutyCycle
1390:Generated_Source\PSoC6\pdl\drivers/peripheral/scb/cy_scb_i2c.h **** ****************************************************************************//**
1391:Generated_Source\PSoC6\pdl\drivers/peripheral/scb/cy_scb_i2c.h **** *
1392:Generated_Source\PSoC6\pdl\drivers/peripheral/scb/cy_scb_i2c.h **** * This function sets the number of SCB clock cycles in the low phase of SCL.
1393:Generated_Source\PSoC6\pdl\drivers/peripheral/scb/cy_scb_i2c.h **** * If \ref Cy_SCB_I2C_SetDataRate is called after this function, the values
1394:Generated_Source\PSoC6\pdl\drivers/peripheral/scb/cy_scb_i2c.h **** * specified in this function are overwritten.
1395:Generated_Source\PSoC6\pdl\drivers/peripheral/scb/cy_scb_i2c.h **** *
1396:Generated_Source\PSoC6\pdl\drivers/peripheral/scb/cy_scb_i2c.h **** * \param base
1397:Generated_Source\PSoC6\pdl\drivers/peripheral/scb/cy_scb_i2c.h **** * The pointer to the I2C SCB instance.
1398:Generated_Source\PSoC6\pdl\drivers/peripheral/scb/cy_scb_i2c.h **** *
1399:Generated_Source\PSoC6\pdl\drivers/peripheral/scb/cy_scb_i2c.h **** * \param clockCycles
1400:Generated_Source\PSoC6\pdl\drivers/peripheral/scb/cy_scb_i2c.h **** * The number of SCB clock cycles in the low phase of SCL.
1401:Generated_Source\PSoC6\pdl\drivers/peripheral/scb/cy_scb_i2c.h **** * The valid range is 7 to 16.
1402:Generated_Source\PSoC6\pdl\drivers/peripheral/scb/cy_scb_i2c.h **** *
1403:Generated_Source\PSoC6\pdl\drivers/peripheral/scb/cy_scb_i2c.h **** * \note
1404:Generated_Source\PSoC6\pdl\drivers/peripheral/scb/cy_scb_i2c.h **** * This function should be used at your own risk. Changing the number of clock
1405:Generated_Source\PSoC6\pdl\drivers/peripheral/scb/cy_scb_i2c.h **** * cycles in a phase of SCL may violate the I2C specification. Make this
1406:Generated_Source\PSoC6\pdl\drivers/peripheral/scb/cy_scb_i2c.h **** * change only while the block is disabled.
1407:Generated_Source\PSoC6\pdl\drivers/peripheral/scb/cy_scb_i2c.h **** *
1408:Generated_Source\PSoC6\pdl\drivers/peripheral/scb/cy_scb_i2c.h **** *******************************************************************************/
1409:Generated_Source\PSoC6\pdl\drivers/peripheral/scb/cy_scb_i2c.h **** __STATIC_INLINE void Cy_SCB_I2C_MasterSetLowPhaseDutyCycle(CySCB_Type *base, uint32_t clockCycles)
1410:Generated_Source\PSoC6\pdl\drivers/peripheral/scb/cy_scb_i2c.h **** {
1411:Generated_Source\PSoC6\pdl\drivers/peripheral/scb/cy_scb_i2c.h ****     CY_ASSERT_L2(CY_SCB_I2C_IS_LOW_PHASE_CYCLES_VALID(clockCycles));
1412:Generated_Source\PSoC6\pdl\drivers/peripheral/scb/cy_scb_i2c.h **** 
1413:Generated_Source\PSoC6\pdl\drivers/peripheral/scb/cy_scb_i2c.h ****     CY_REG32_CLR_SET(SCB_I2C_CTRL(base), SCB_I2C_CTRL_LOW_PHASE_OVS, (clockCycles - 1UL));
1414:Generated_Source\PSoC6\pdl\drivers/peripheral/scb/cy_scb_i2c.h **** }
1415:Generated_Source\PSoC6\pdl\drivers/peripheral/scb/cy_scb_i2c.h **** 
1416:Generated_Source\PSoC6\pdl\drivers/peripheral/scb/cy_scb_i2c.h **** 
1417:Generated_Source\PSoC6\pdl\drivers/peripheral/scb/cy_scb_i2c.h **** /*******************************************************************************
1418:Generated_Source\PSoC6\pdl\drivers/peripheral/scb/cy_scb_i2c.h **** * Function Name: Cy_SCB_I2C_MasterSetHighPhaseDutyCycle
1419:Generated_Source\PSoC6\pdl\drivers/peripheral/scb/cy_scb_i2c.h **** ****************************************************************************//**
1420:Generated_Source\PSoC6\pdl\drivers/peripheral/scb/cy_scb_i2c.h **** *
ARM GAS  C:\Users\Mathieu\AppData\Local\Temp\ccJNHpye.s 			page 43


1421:Generated_Source\PSoC6\pdl\drivers/peripheral/scb/cy_scb_i2c.h **** * This function sets the number of SCB clock cycles in the high phase of SCL.
1422:Generated_Source\PSoC6\pdl\drivers/peripheral/scb/cy_scb_i2c.h **** * If \ref Cy_SCB_I2C_SetDataRate is called after this function, the values
1423:Generated_Source\PSoC6\pdl\drivers/peripheral/scb/cy_scb_i2c.h **** * specified in this function get overwritten.
1424:Generated_Source\PSoC6\pdl\drivers/peripheral/scb/cy_scb_i2c.h **** *
1425:Generated_Source\PSoC6\pdl\drivers/peripheral/scb/cy_scb_i2c.h **** * \param base
1426:Generated_Source\PSoC6\pdl\drivers/peripheral/scb/cy_scb_i2c.h **** * The pointer to the I2C SCB instance.
1427:Generated_Source\PSoC6\pdl\drivers/peripheral/scb/cy_scb_i2c.h **** *
1428:Generated_Source\PSoC6\pdl\drivers/peripheral/scb/cy_scb_i2c.h **** * \param clockCycles
1429:Generated_Source\PSoC6\pdl\drivers/peripheral/scb/cy_scb_i2c.h **** * The number of SCB clock cycles in the high phase of SCL.
1430:Generated_Source\PSoC6\pdl\drivers/peripheral/scb/cy_scb_i2c.h **** * The valid range is 5 to 16.
1431:Generated_Source\PSoC6\pdl\drivers/peripheral/scb/cy_scb_i2c.h **** *
1432:Generated_Source\PSoC6\pdl\drivers/peripheral/scb/cy_scb_i2c.h **** * \note
1433:Generated_Source\PSoC6\pdl\drivers/peripheral/scb/cy_scb_i2c.h **** * This function should be used at your own risk. Changing the number of clock
1434:Generated_Source\PSoC6\pdl\drivers/peripheral/scb/cy_scb_i2c.h **** * cycles in a phase of SCL may violate the I2C specification. Make this
1435:Generated_Source\PSoC6\pdl\drivers/peripheral/scb/cy_scb_i2c.h **** * change only while the block is disabled.
1436:Generated_Source\PSoC6\pdl\drivers/peripheral/scb/cy_scb_i2c.h **** *
1437:Generated_Source\PSoC6\pdl\drivers/peripheral/scb/cy_scb_i2c.h **** *******************************************************************************/
1438:Generated_Source\PSoC6\pdl\drivers/peripheral/scb/cy_scb_i2c.h **** __STATIC_INLINE void Cy_SCB_I2C_MasterSetHighPhaseDutyCycle(CySCB_Type *base, uint32_t clockCycles)
1439:Generated_Source\PSoC6\pdl\drivers/peripheral/scb/cy_scb_i2c.h **** {
1440:Generated_Source\PSoC6\pdl\drivers/peripheral/scb/cy_scb_i2c.h ****     CY_ASSERT_L2(CY_SCB_I2C_IS_HIGH_PHASE_CYCLES_VALID(clockCycles));
1441:Generated_Source\PSoC6\pdl\drivers/peripheral/scb/cy_scb_i2c.h **** 
1442:Generated_Source\PSoC6\pdl\drivers/peripheral/scb/cy_scb_i2c.h ****     CY_REG32_CLR_SET(SCB_I2C_CTRL(base), SCB_I2C_CTRL_HIGH_PHASE_OVS, (clockCycles - 1UL));
1443:Generated_Source\PSoC6\pdl\drivers/peripheral/scb/cy_scb_i2c.h **** }
1444:Generated_Source\PSoC6\pdl\drivers/peripheral/scb/cy_scb_i2c.h **** /** \} group_scb_i2c_general_functions */
1445:Generated_Source\PSoC6\pdl\drivers/peripheral/scb/cy_scb_i2c.h **** 
1446:Generated_Source\PSoC6\pdl\drivers/peripheral/scb/cy_scb_i2c.h **** /**
1447:Generated_Source\PSoC6\pdl\drivers/peripheral/scb/cy_scb_i2c.h **** * \addtogroup group_scb_i2c_interrupt_functions
1448:Generated_Source\PSoC6\pdl\drivers/peripheral/scb/cy_scb_i2c.h **** * \{
1449:Generated_Source\PSoC6\pdl\drivers/peripheral/scb/cy_scb_i2c.h **** */
1450:Generated_Source\PSoC6\pdl\drivers/peripheral/scb/cy_scb_i2c.h **** 
1451:Generated_Source\PSoC6\pdl\drivers/peripheral/scb/cy_scb_i2c.h **** /*******************************************************************************
1452:Generated_Source\PSoC6\pdl\drivers/peripheral/scb/cy_scb_i2c.h **** * Function Name: Cy_SCB_I2C_RegisterEventCallback
1453:Generated_Source\PSoC6\pdl\drivers/peripheral/scb/cy_scb_i2c.h **** ****************************************************************************//**
1454:Generated_Source\PSoC6\pdl\drivers/peripheral/scb/cy_scb_i2c.h **** *
1455:Generated_Source\PSoC6\pdl\drivers/peripheral/scb/cy_scb_i2c.h **** * Registers a callback function that notifies that
1456:Generated_Source\PSoC6\pdl\drivers/peripheral/scb/cy_scb_i2c.h **** * \ref group_scb_i2c_macros_callback_events occurred in the
1457:Generated_Source\PSoC6\pdl\drivers/peripheral/scb/cy_scb_i2c.h **** * \ref Cy_SCB_I2C_Interrupt.
1458:Generated_Source\PSoC6\pdl\drivers/peripheral/scb/cy_scb_i2c.h **** *
1459:Generated_Source\PSoC6\pdl\drivers/peripheral/scb/cy_scb_i2c.h **** * \param base
1460:Generated_Source\PSoC6\pdl\drivers/peripheral/scb/cy_scb_i2c.h **** * The pointer to the I2C SCB instance.
1461:Generated_Source\PSoC6\pdl\drivers/peripheral/scb/cy_scb_i2c.h **** *
1462:Generated_Source\PSoC6\pdl\drivers/peripheral/scb/cy_scb_i2c.h **** * \param callback
1463:Generated_Source\PSoC6\pdl\drivers/peripheral/scb/cy_scb_i2c.h **** * The pointer to a callback function.
1464:Generated_Source\PSoC6\pdl\drivers/peripheral/scb/cy_scb_i2c.h **** * See \ref cy_cb_scb_i2c_handle_events_t for the function prototype.
1465:Generated_Source\PSoC6\pdl\drivers/peripheral/scb/cy_scb_i2c.h **** *
1466:Generated_Source\PSoC6\pdl\drivers/peripheral/scb/cy_scb_i2c.h **** * \param context
1467:Generated_Source\PSoC6\pdl\drivers/peripheral/scb/cy_scb_i2c.h **** * The pointer to context structure \ref cy_stc_scb_i2c_context_t allocated by
1468:Generated_Source\PSoC6\pdl\drivers/peripheral/scb/cy_scb_i2c.h **** * the user. The structure is used while the I2C operation for internal
1469:Generated_Source\PSoC6\pdl\drivers/peripheral/scb/cy_scb_i2c.h **** * configuration and data retention. The user should not modify anything in
1470:Generated_Source\PSoC6\pdl\drivers/peripheral/scb/cy_scb_i2c.h **** * this structure.
1471:Generated_Source\PSoC6\pdl\drivers/peripheral/scb/cy_scb_i2c.h **** *
1472:Generated_Source\PSoC6\pdl\drivers/peripheral/scb/cy_scb_i2c.h **** * \note
1473:Generated_Source\PSoC6\pdl\drivers/peripheral/scb/cy_scb_i2c.h **** * To remove the callback, pass NULL as the pointer to the callback function.
1474:Generated_Source\PSoC6\pdl\drivers/peripheral/scb/cy_scb_i2c.h **** *
1475:Generated_Source\PSoC6\pdl\drivers/peripheral/scb/cy_scb_i2c.h **** *******************************************************************************/
1476:Generated_Source\PSoC6\pdl\drivers/peripheral/scb/cy_scb_i2c.h **** __STATIC_INLINE void Cy_SCB_I2C_RegisterEventCallback(CySCB_Type const *base,
1477:Generated_Source\PSoC6\pdl\drivers/peripheral/scb/cy_scb_i2c.h ****             cy_cb_scb_i2c_handle_events_t callback, cy_stc_scb_i2c_context_t *context)
ARM GAS  C:\Users\Mathieu\AppData\Local\Temp\ccJNHpye.s 			page 44


1478:Generated_Source\PSoC6\pdl\drivers/peripheral/scb/cy_scb_i2c.h **** {
1479:Generated_Source\PSoC6\pdl\drivers/peripheral/scb/cy_scb_i2c.h ****     /* Suppress a compiler warning about unused variables */
1480:Generated_Source\PSoC6\pdl\drivers/peripheral/scb/cy_scb_i2c.h ****     (void) base;
1481:Generated_Source\PSoC6\pdl\drivers/peripheral/scb/cy_scb_i2c.h **** 
1482:Generated_Source\PSoC6\pdl\drivers/peripheral/scb/cy_scb_i2c.h ****     context->cbEvents = callback;
 313              		.loc 3 1482 0
 314 0006 144A     		ldr	r2, .L19
 315 0008 144B     		ldr	r3, .L19+4
 316 000a 5A64     		str	r2, [r3, #68]
 317              	.LVL32:
 318              	.LBE24:
 319              	.LBE23:
 320              	.LBE22:
 130:main_cm4.c    **** 		
 131:main_cm4.c    **** 		/* Register interrupt callback */
 132:main_cm4.c    **** 		I2C_RegisterEventCallback(I2C_Callback);
 133:main_cm4.c    **** 		
 134:main_cm4.c    **** 		/* Sensor configurations */
 135:main_cm4.c    **** 		sensor.id           = BMI160_I2C_ADDR;
 321              		.loc 1 135 0
 322 000c 1448     		ldr	r0, .L19+8
 323 000e 6823     		movs	r3, #104
 324 0010 4374     		strb	r3, [r0, #17]
 136:main_cm4.c    **** 		sensor.interface    = BMI160_I2C_INTF;
 325              		.loc 1 136 0
 326 0012 0023     		movs	r3, #0
 327 0014 8374     		strb	r3, [r0, #18]
 137:main_cm4.c    **** 		sensor.read         = (bmi160_com_fptr_t)I2C_ReadBytes;
 328              		.loc 1 137 0
 329 0016 134B     		ldr	r3, .L19+12
 330 0018 C362     		str	r3, [r0, #44]
 138:main_cm4.c    **** 		sensor.write        = (bmi160_com_fptr_t)I2C_WriteBytes;
 331              		.loc 1 138 0
 332 001a 134B     		ldr	r3, .L19+16
 333 001c 0363     		str	r3, [r0, #48]
 139:main_cm4.c    **** 		sensor.delay_ms     = vTaskDelay;
 334              		.loc 1 139 0
 335 001e 134B     		ldr	r3, .L19+20
 336 0020 4363     		str	r3, [r0, #52]
 140:main_cm4.c    **** 		
 141:main_cm4.c    **** 		/* Initialize BNI160 sensor */
 142:main_cm4.c    **** 		rslt += bmi160_init(&sensor);
 337              		.loc 1 142 0
 338 0022 1030     		adds	r0, r0, #16
 339 0024 FFF7FEFF 		bl	bmi160_init
 340              	.LVL33:
 341 0028 C0B2     		uxtb	r0, r0
 342              	.LVL34:
 143:main_cm4.c    **** 			
 144:main_cm4.c    **** 		if(rslt == BMI160_OK) /* BMI160 initialization successful */
 343              		.loc 1 144 0
 344 002a 98B9     		cbnz	r0, .L17
 145:main_cm4.c    **** 		{
 146:main_cm4.c    **** 			/* Select the Output data rate, range of accelerometer sensor */
 147:main_cm4.c    **** 			sensor.accel_cfg.odr    = BMI160_ACCEL_ODR_12_5HZ;
 345              		.loc 1 147 0
 346 002c 0C48     		ldr	r0, .L19+8
ARM GAS  C:\Users\Mathieu\AppData\Local\Temp\ccJNHpye.s 			page 45


 347              	.LVL35:
 348 002e 0523     		movs	r3, #5
 349 0030 4375     		strb	r3, [r0, #21]
 148:main_cm4.c    **** 			sensor.accel_cfg.range  = BMI160_ACCEL_RANGE_2G;
 350              		.loc 1 148 0
 351 0032 0323     		movs	r3, #3
 352 0034 8375     		strb	r3, [r0, #22]
 149:main_cm4.c    **** 			sensor.accel_cfg.bw     = BMI160_ACCEL_BW_NORMAL_AVG4;
 353              		.loc 1 149 0
 354 0036 0223     		movs	r3, #2
 355 0038 C375     		strb	r3, [r0, #23]
 150:main_cm4.c    **** 
 151:main_cm4.c    **** 			/* Select the power mode of accelerometer sensor */
 152:main_cm4.c    **** 			sensor.accel_cfg.power  = BMI160_ACCEL_NORMAL_MODE;
 356              		.loc 1 152 0
 357 003a 1122     		movs	r2, #17
 358 003c 0275     		strb	r2, [r0, #20]
 153:main_cm4.c    **** 
 154:main_cm4.c    **** 			/* Select the Output data rate, range of Gyroscope sensor */
 155:main_cm4.c    **** 			sensor.gyro_cfg.odr     = BMI160_GYRO_ODR_3200HZ;
 359              		.loc 1 155 0
 360 003e 0D22     		movs	r2, #13
 361 0040 4277     		strb	r2, [r0, #29]
 156:main_cm4.c    **** 			sensor.gyro_cfg.range   = BMI160_GYRO_RANGE_2000_DPS;
 362              		.loc 1 156 0
 363 0042 0022     		movs	r2, #0
 364 0044 8277     		strb	r2, [r0, #30]
 157:main_cm4.c    **** 			sensor.gyro_cfg.bw      = BMI160_GYRO_BW_NORMAL_MODE;
 365              		.loc 1 157 0
 366 0046 C377     		strb	r3, [r0, #31]
 158:main_cm4.c    **** 
 159:main_cm4.c    **** 			/* Select the power mode of Gyroscope sensor */
 160:main_cm4.c    **** 			sensor.gyro_cfg.power   = BMI160_GYRO_NORMAL_MODE; 
 367              		.loc 1 160 0
 368 0048 1523     		movs	r3, #21
 369 004a 0377     		strb	r3, [r0, #28]
 161:main_cm4.c    **** 
 162:main_cm4.c    **** 			/* Set the sensor configuration */
 163:main_cm4.c    **** 			rslt = bmi160_set_sens_conf(&sensor);
 370              		.loc 1 163 0
 371 004c 1030     		adds	r0, r0, #16
 372 004e FFF7FEFF 		bl	bmi160_set_sens_conf
 373              	.LVL36:
 374 0052 C0B2     		uxtb	r0, r0
 375              	.LVL37:
 376              	.L17:
 164:main_cm4.c    **** 		}
 165:main_cm4.c    **** 		return rslt;
 166:main_cm4.c    **** 	}
 377              		.loc 1 166 0
 378 0054 40B2     		sxtb	r0, r0
 379 0056 08BD     		pop	{r3, pc}
 380              	.L20:
 381              		.align	2
 382              	.L19:
 383 0058 00000000 		.word	I2C_Callback
 384 005c 00000000 		.word	I2C_context
ARM GAS  C:\Users\Mathieu\AppData\Local\Temp\ccJNHpye.s 			page 46


 385 0060 00000000 		.word	.LANCHOR0
 386 0064 00000000 		.word	I2C_ReadBytes
 387 0068 00000000 		.word	I2C_WriteBytes
 388 006c 00000000 		.word	vTaskDelay
 389              		.cfi_endproc
 390              	.LFE516:
 391              		.size	MotionSensor_Init, .-MotionSensor_Init
 392              		.section	.text.Task_Motion,"ax",%progbits
 393              		.align	2
 394              		.global	Task_Motion
 395              		.thumb
 396              		.thumb_func
 397              		.type	Task_Motion, %function
 398              	Task_Motion:
 399              	.LFB517:
 167:main_cm4.c    **** 
 168:main_cm4.c    **** 
 169:main_cm4.c    **** 	//Tâche associé au capteur de mouvement
 170:main_cm4.c    **** 	void Task_Motion(void* pvParameters)
 171:main_cm4.c    **** 	{
 400              		.loc 1 171 0
 401              		.cfi_startproc
 402              		@ args = 0, pretend = 0, frame = 16
 403              		@ frame_needed = 0, uses_anonymous_args = 0
 404              	.LVL38:
 405 0000 00B5     		push	{lr}
 406              		.cfi_def_cfa_offset 4
 407              		.cfi_offset 14, -4
 408 0002 85B0     		sub	sp, sp, #20
 409              		.cfi_def_cfa_offset 24
 172:main_cm4.c    **** 		/* Variable used to store the return values of Motion Sensor APIs */
 173:main_cm4.c    **** 		static int8_t motionSensorApiResult;
 174:main_cm4.c    **** 		
 175:main_cm4.c    **** 		/* Remove warning for unused parameter */
 176:main_cm4.c    **** 		(void)pvParameters;
 177:main_cm4.c    **** 		
 178:main_cm4.c    **** 		/* Create binary semaphore and check the operation */
 179:main_cm4.c    **** 		xSemaphoreI2C = xSemaphoreCreateBinary();
 410              		.loc 1 179 0
 411 0004 0322     		movs	r2, #3
 412 0006 0021     		movs	r1, #0
 413 0008 0120     		movs	r0, #1
 414              	.LVL39:
 415 000a FFF7FEFF 		bl	xQueueGenericCreate
 416              	.LVL40:
 417 000e 114B     		ldr	r3, .L26
 418 0010 1860     		str	r0, [r3]
 180:main_cm4.c    **** 		if(xSemaphoreI2C == NULL)
 419              		.loc 1 180 0
 420 0012 10B9     		cbnz	r0, .L22
 181:main_cm4.c    **** 		{
 182:main_cm4.c    **** 			printf("Failure!  : Motion Sensor - Failed to create semaphore");
 421              		.loc 1 182 0
 422 0014 1048     		ldr	r0, .L26+4
 423 0016 FFF7FEFF 		bl	printf
 424              	.LVL41:
 425              	.L22:
ARM GAS  C:\Users\Mathieu\AppData\Local\Temp\ccJNHpye.s 			page 47


 183:main_cm4.c    **** 		}
 184:main_cm4.c    **** 		
 185:main_cm4.c    **** 		/* Initialize BMI160 Motion Sensor and check the operation */
 186:main_cm4.c    **** 		motionSensorApiResult = MotionSensor_Init();
 426              		.loc 1 186 0
 427 001a FFF7FEFF 		bl	MotionSensor_Init
 428              	.LVL42:
 187:main_cm4.c    **** 		if(motionSensorApiResult != BMI160_OK) 
 429              		.loc 1 187 0
 430 001e 28B1     		cbz	r0, .L24
 188:main_cm4.c    **** 		{
 189:main_cm4.c    **** 			/* If initialization fails then print error message and suspend the task */
 190:main_cm4.c    **** 			printf("Failure!  : Motion Sensor initialization. Check hardware connection");
 431              		.loc 1 190 0
 432 0020 0E48     		ldr	r0, .L26+8
 433 0022 FFF7FEFF 		bl	printf
 434              	.LVL43:
 191:main_cm4.c    **** 			vTaskSuspend(NULL);
 435              		.loc 1 191 0
 436 0026 0020     		movs	r0, #0
 437 0028 FFF7FEFF 		bl	vTaskSuspend
 438              	.LVL44:
 439              	.L24:
 440              	.LBB25:
 192:main_cm4.c    **** 		}
 193:main_cm4.c    **** 		
 194:main_cm4.c    **** 		
 195:main_cm4.c    **** 			
 196:main_cm4.c    **** 		for(;;)
 197:main_cm4.c    **** 		{  
 198:main_cm4.c    **** 			 /* Structure that stores accelerometer data */
 199:main_cm4.c    **** 			struct bmi160_sensor_data accel;
 200:main_cm4.c    ****             
 201:main_cm4.c    **** 			/* Variable used to store the return values of BMI160 APIs */
 202:main_cm4.c    **** 			int8_t rslt = BMI160_OK;
 203:main_cm4.c    ****             
 204:main_cm4.c    **** 			/* Local variable used to store accelerometer data */
 205:main_cm4.c    **** 			uint16_t absX, absY, absZ;
 206:main_cm4.c    **** 		
 207:main_cm4.c    **** 			/* Read x, y, z components of acceleration */
 208:main_cm4.c    **** 			rslt = bmi160_get_sensor_data(BMI160_ACCEL_SEL, &accel, NULL, &sensor);
 441              		.loc 1 208 0 discriminator 1
 442 002c 0C4B     		ldr	r3, .L26+12
 443 002e 0022     		movs	r2, #0
 444 0030 01A9     		add	r1, sp, #4
 445 0032 0120     		movs	r0, #1
 446 0034 FFF7FEFF 		bl	bmi160_get_sensor_data
 447              	.LVL45:
 209:main_cm4.c    **** 		
 210:main_cm4.c    ****             //Sensibilité 2g --> g environ égal 16384
 211:main_cm4.c    ****             
 212:main_cm4.c    **** 			/* Get the absolute value of accelerations */
 213:main_cm4.c    **** 			absX = abs(accel.x);
 214:main_cm4.c    **** 			absY = abs(accel.y);
 215:main_cm4.c    **** 			absZ = abs(accel.z);
 216:main_cm4.c    **** 			
 217:main_cm4.c    ****             //Afficher les valeurs d'accélération à chaque seconde dans Tera
ARM GAS  C:\Users\Mathieu\AppData\Local\Temp\ccJNHpye.s 			page 48


 218:main_cm4.c    **** 			//printf("ax = %1.2hu ay = %1.2hu az = %1.2hu\r\n",absX,absY,absZ);
 219:main_cm4.c    **** 			//vTaskDelay(1000);
 220:main_cm4.c    ****             
 221:main_cm4.c    ****             uint8_t data;
 222:main_cm4.c    ****             I2C_ReadBytes(0x68,0x00,&data,1);
 448              		.loc 1 222 0 discriminator 1
 449 0038 0123     		movs	r3, #1
 450 003a 0DF10302 		add	r2, sp, #3
 451 003e 0021     		movs	r1, #0
 452 0040 6820     		movs	r0, #104
 453 0042 FFF7FEFF 		bl	I2C_ReadBytes
 454              	.LVL46:
 223:main_cm4.c    ****             printf("Le contenu du registre : %p \r\n",data);
 455              		.loc 1 223 0 discriminator 1
 456 0046 9DF80310 		ldrb	r1, [sp, #3]	@ zero_extendqisi2
 457 004a 0648     		ldr	r0, .L26+16
 458 004c FFF7FEFF 		bl	printf
 459              	.LVL47:
 460 0050 ECE7     		b	.L24
 461              	.L27:
 462 0052 00BF     		.align	2
 463              	.L26:
 464 0054 00000000 		.word	xSemaphoreI2C
 465 0058 38000000 		.word	.LC2
 466 005c 70000000 		.word	.LC3
 467 0060 10000000 		.word	.LANCHOR0+16
 468 0064 B4000000 		.word	.LC4
 469              	.LBE25:
 470              		.cfi_endproc
 471              	.LFE517:
 472              		.size	Task_Motion, .-Task_Motion
 473              		.section	.text.main,"ax",%progbits
 474              		.align	2
 475              		.global	main
 476              		.thumb
 477              		.thumb_func
 478              		.type	main, %function
 479              	main:
 480              	.LFB518:
 224:main_cm4.c    ****             
 225:main_cm4.c    **** 		}
 226:main_cm4.c    **** 	}
 227:main_cm4.c    **** 	
 228:main_cm4.c    **** //main
 229:main_cm4.c    **** 
 230:main_cm4.c    **** 	int main(void)
 231:main_cm4.c    **** 	{
 481              		.loc 1 231 0
 482              		.cfi_startproc
 483              		@ Volatile: function does not return.
 484              		@ args = 0, pretend = 0, frame = 0
 485              		@ frame_needed = 0, uses_anonymous_args = 0
 486 0000 00B5     		push	{lr}
 487              		.cfi_def_cfa_offset 4
 488              		.cfi_offset 14, -4
 489 0002 83B0     		sub	sp, sp, #12
 490              		.cfi_def_cfa_offset 16
ARM GAS  C:\Users\Mathieu\AppData\Local\Temp\ccJNHpye.s 			page 49


 491              	.LBB26:
 492              	.LBB27:
 493              		.file 4 "Generated_Source\\PSoC6\\pdl\\cmsis/include/cmsis_gcc.h"
   1:Generated_Source\PSoC6\pdl\cmsis/include/cmsis_gcc.h **** /**************************************************************************//**
   2:Generated_Source\PSoC6\pdl\cmsis/include/cmsis_gcc.h ****  * @file     cmsis_gcc.h
   3:Generated_Source\PSoC6\pdl\cmsis/include/cmsis_gcc.h ****  * @brief    CMSIS compiler GCC header file
   4:Generated_Source\PSoC6\pdl\cmsis/include/cmsis_gcc.h ****  * @version  V5.0.3
   5:Generated_Source\PSoC6\pdl\cmsis/include/cmsis_gcc.h ****  * @date     16. January 2018
   6:Generated_Source\PSoC6\pdl\cmsis/include/cmsis_gcc.h ****  ******************************************************************************/
   7:Generated_Source\PSoC6\pdl\cmsis/include/cmsis_gcc.h **** /*
   8:Generated_Source\PSoC6\pdl\cmsis/include/cmsis_gcc.h ****  * Copyright (c) 2009-2017 ARM Limited. All rights reserved.
   9:Generated_Source\PSoC6\pdl\cmsis/include/cmsis_gcc.h ****  *
  10:Generated_Source\PSoC6\pdl\cmsis/include/cmsis_gcc.h ****  * SPDX-License-Identifier: Apache-2.0
  11:Generated_Source\PSoC6\pdl\cmsis/include/cmsis_gcc.h ****  *
  12:Generated_Source\PSoC6\pdl\cmsis/include/cmsis_gcc.h ****  * Licensed under the Apache License, Version 2.0 (the License); you may
  13:Generated_Source\PSoC6\pdl\cmsis/include/cmsis_gcc.h ****  * not use this file except in compliance with the License.
  14:Generated_Source\PSoC6\pdl\cmsis/include/cmsis_gcc.h ****  * You may obtain a copy of the License at
  15:Generated_Source\PSoC6\pdl\cmsis/include/cmsis_gcc.h ****  *
  16:Generated_Source\PSoC6\pdl\cmsis/include/cmsis_gcc.h ****  * www.apache.org/licenses/LICENSE-2.0
  17:Generated_Source\PSoC6\pdl\cmsis/include/cmsis_gcc.h ****  *
  18:Generated_Source\PSoC6\pdl\cmsis/include/cmsis_gcc.h ****  * Unless required by applicable law or agreed to in writing, software
  19:Generated_Source\PSoC6\pdl\cmsis/include/cmsis_gcc.h ****  * distributed under the License is distributed on an AS IS BASIS, WITHOUT
  20:Generated_Source\PSoC6\pdl\cmsis/include/cmsis_gcc.h ****  * WARRANTIES OR CONDITIONS OF ANY KIND, either express or implied.
  21:Generated_Source\PSoC6\pdl\cmsis/include/cmsis_gcc.h ****  * See the License for the specific language governing permissions and
  22:Generated_Source\PSoC6\pdl\cmsis/include/cmsis_gcc.h ****  * limitations under the License.
  23:Generated_Source\PSoC6\pdl\cmsis/include/cmsis_gcc.h ****  */
  24:Generated_Source\PSoC6\pdl\cmsis/include/cmsis_gcc.h **** 
  25:Generated_Source\PSoC6\pdl\cmsis/include/cmsis_gcc.h **** #ifndef __CMSIS_GCC_H
  26:Generated_Source\PSoC6\pdl\cmsis/include/cmsis_gcc.h **** #define __CMSIS_GCC_H
  27:Generated_Source\PSoC6\pdl\cmsis/include/cmsis_gcc.h **** 
  28:Generated_Source\PSoC6\pdl\cmsis/include/cmsis_gcc.h **** /* ignore some GCC warnings */
  29:Generated_Source\PSoC6\pdl\cmsis/include/cmsis_gcc.h **** #pragma GCC diagnostic push
  30:Generated_Source\PSoC6\pdl\cmsis/include/cmsis_gcc.h **** #pragma GCC diagnostic ignored "-Wsign-conversion"
  31:Generated_Source\PSoC6\pdl\cmsis/include/cmsis_gcc.h **** #pragma GCC diagnostic ignored "-Wconversion"
  32:Generated_Source\PSoC6\pdl\cmsis/include/cmsis_gcc.h **** #pragma GCC diagnostic ignored "-Wunused-parameter"
  33:Generated_Source\PSoC6\pdl\cmsis/include/cmsis_gcc.h **** 
  34:Generated_Source\PSoC6\pdl\cmsis/include/cmsis_gcc.h **** /* Fallback for __has_builtin */
  35:Generated_Source\PSoC6\pdl\cmsis/include/cmsis_gcc.h **** #ifndef __has_builtin
