ARM GAS  C:\Users\Mathieu\AppData\Local\Temp\cciy10yY.s 			page 1


   1              		.syntax unified
   2              		.cpu cortex-m4
   3              		.eabi_attribute 27, 1
   4              		.fpu fpv4-sp-d16
   5              		.eabi_attribute 20, 1
   6              		.eabi_attribute 21, 1
   7              		.eabi_attribute 23, 3
   8              		.eabi_attribute 24, 1
   9              		.eabi_attribute 25, 1
  10              		.eabi_attribute 26, 1
  11              		.eabi_attribute 30, 1
  12              		.eabi_attribute 34, 1
  13              		.eabi_attribute 18, 4
  14              		.thumb
  15              		.syntax unified
  16              		.file	"main_cm4.c"
  17              		.text
  18              	.Ltext0:
  19              		.cfi_sections	.debug_frame
  20              		.section	.text.bmi160Init,"ax",%progbits
  21              		.align	2
  22              		.thumb
  23              		.thumb_func
  24              		.type	bmi160Init, %function
  25              	bmi160Init:
  26              	.LFB515:
  27              		.file 1 "main_cm4.c"
   1:main_cm4.c    **** /* ========================================
   2:main_cm4.c    ****  *
   3:main_cm4.c    ****  * Copyright YOUR COMPANY, THE YEAR
   4:main_cm4.c    ****  * All Rights Reserved
   5:main_cm4.c    ****  * UNPUBLISHED, LICENSED SOFTWARE.
   6:main_cm4.c    ****  *
   7:main_cm4.c    ****  * CONFIDENTIAL AND PROPRIETARY INFORMATION
   8:main_cm4.c    ****  * WHICH IS THE PROPERTY OF your company.
   9:main_cm4.c    ****  *
  10:main_cm4.c    ****  * ========================================
  11:main_cm4.c    **** */
  12:main_cm4.c    **** #include "project.h"
  13:main_cm4.c    **** #include "bmi160.h"
  14:main_cm4.c    **** #include "FreeRTOS.h"
  15:main_cm4.c    **** #include "task.h"
  16:main_cm4.c    **** #include <stdio.h>
  17:main_cm4.c    **** 
  18:main_cm4.c    **** static struct bmi160_dev bmi160Dev;
  19:main_cm4.c    **** 
  20:main_cm4.c    **** static int8_t  Write_I2C(uint8_t dev_addr, uint8_t reg_addr, uint8_t *data, uint16_t len)
  21:main_cm4.c    **** {
  22:main_cm4.c    ****     Cy_SCB_I2C_MasterSendStart(I2C_HW, dev_addr,CY_SCB_I2C_WRITE_XFER,0,&I2C_context); //Mode écri
  23:main_cm4.c    ****     Cy_SCB_I2C_MasterWriteByte(I2C_HW, reg_addr,0,&I2C_context); //Précision du registre
  24:main_cm4.c    ****     for(int i = 0; i< len;i++)
  25:main_cm4.c    ****     {
  26:main_cm4.c    ****         Cy_SCB_I2C_MasterWriteByte(I2C_HW, data[i],0,&I2C_context); //Écriture dans le registre   
  27:main_cm4.c    ****     }
  28:main_cm4.c    ****     Cy_SCB_I2C_MasterSendStop(I2C_HW,0,&I2C_context); //arrêt
  29:main_cm4.c    ****     
  30:main_cm4.c    ****     return 0;
ARM GAS  C:\Users\Mathieu\AppData\Local\Temp\cciy10yY.s 			page 2


  31:main_cm4.c    **** }
  32:main_cm4.c    **** 
  33:main_cm4.c    **** static int8_t  Read_I2C(uint8_t dev_addr, uint8_t reg_addr, uint8_t *data, uint16_t len)
  34:main_cm4.c    **** {
  35:main_cm4.c    ****     Cy_SCB_I2C_MasterSendStart(I2C_HW, dev_addr,CY_SCB_I2C_WRITE_XFER,0,&I2C_context); //Mode écri
  36:main_cm4.c    ****     Cy_SCB_I2C_MasterWriteByte(I2C_HW, reg_addr,0,&I2C_context); //Précision du registre
  37:main_cm4.c    ****     Cy_SCB_I2C_MasterSendReStart(I2C_HW, dev_addr,CY_SCB_I2C_READ_XFER,0,&I2C_context); //Mode écr
  38:main_cm4.c    ****     for(int i = 0; i< len-1;i++)
  39:main_cm4.c    ****     {
  40:main_cm4.c    ****         Cy_SCB_I2C_MasterReadByte(I2C_HW,CY_SCB_I2C_ACK, &data[i],0,&I2C_context); //Lecture dans l
  41:main_cm4.c    ****     }
  42:main_cm4.c    ****     Cy_SCB_I2C_MasterReadByte(I2C_HW,CY_SCB_I2C_NAK, &data[len-1],0,&I2C_context); //Fin de lecture
  43:main_cm4.c    ****     Cy_SCB_I2C_MasterSendStop(I2C_HW,0,&I2C_context); //arrêt
  44:main_cm4.c    ****     
  45:main_cm4.c    ****     return 0;
  46:main_cm4.c    **** }
  47:main_cm4.c    **** 
  48:main_cm4.c    **** static void bmi160Init(void)
  49:main_cm4.c    **** {   
  28              		.loc 1 49 0
  29              		.cfi_startproc
  30              		@ args = 0, pretend = 0, frame = 0
  31              		@ frame_needed = 0, uses_anonymous_args = 0
  32 0000 10B5     		push	{r4, lr}
  33              		.cfi_def_cfa_offset 8
  34              		.cfi_offset 4, -8
  35              		.cfi_offset 14, -4
  50:main_cm4.c    ****     vTaskDelay(100);
  36              		.loc 1 50 0
  37 0002 6420     		movs	r0, #100
  38 0004 FFF7FEFF 		bl	vTaskDelay
  39              	.LVL0:
  51:main_cm4.c    ****     
  52:main_cm4.c    ****     bmi160Dev.read = (bmi160_com_fptr_t)Read_I2C;
  40              		.loc 1 52 0
  41 0008 104C     		ldr	r4, .L3
  42 000a 114B     		ldr	r3, .L3+4
  43 000c E361     		str	r3, [r4, #28]
  53:main_cm4.c    ****     bmi160Dev.write = (bmi160_com_fptr_t)Write_I2C;
  44              		.loc 1 53 0
  45 000e 114B     		ldr	r3, .L3+8
  46 0010 2362     		str	r3, [r4, #32]
  54:main_cm4.c    ****     bmi160Dev.delay_ms = (bmi160_delay_fptr_t)vTaskDelay;
  47              		.loc 1 54 0
  48 0012 114B     		ldr	r3, .L3+12
  49 0014 6362     		str	r3, [r4, #36]
  55:main_cm4.c    ****     bmi160Dev.id = BMI160_I2C_ADDR; //Adresse du capteur
  50              		.loc 1 55 0
  51 0016 6823     		movs	r3, #104
  52 0018 6370     		strb	r3, [r4, #1]
  56:main_cm4.c    ****     
  57:main_cm4.c    ****     bmi160_init(&bmi160Dev);//Initialiser le capteur
  53              		.loc 1 57 0
  54 001a 2046     		mov	r0, r4
  55 001c FFF7FEFF 		bl	bmi160_init
  56              	.LVL1:
  58:main_cm4.c    ****     
ARM GAS  C:\Users\Mathieu\AppData\Local\Temp\cciy10yY.s 			page 3


  59:main_cm4.c    ****     /* Select the Output data rate, range of accelerometer sensor */
  60:main_cm4.c    ****     bmi160Dev.accel_cfg.odr = BMI160_ACCEL_ODR_1600HZ;
  57              		.loc 1 60 0
  58 0020 0C22     		movs	r2, #12
  59 0022 6271     		strb	r2, [r4, #5]
  61:main_cm4.c    ****     bmi160Dev.accel_cfg.range = BMI160_ACCEL_RANGE_2G;
  60              		.loc 1 61 0
  61 0024 0323     		movs	r3, #3
  62 0026 A371     		strb	r3, [r4, #6]
  62:main_cm4.c    ****     bmi160Dev.accel_cfg.bw = BMI160_ACCEL_BW_OSR4_AVG1;
  63              		.loc 1 62 0
  64 0028 0023     		movs	r3, #0
  65 002a E371     		strb	r3, [r4, #7]
  63:main_cm4.c    **** 
  64:main_cm4.c    ****     /* Select the power mode of accelerometer sensor */
  65:main_cm4.c    ****     bmi160Dev.accel_cfg.power = BMI160_ACCEL_NORMAL_MODE;
  66              		.loc 1 65 0
  67 002c 1121     		movs	r1, #17
  68 002e 2171     		strb	r1, [r4, #4]
  66:main_cm4.c    **** 
  67:main_cm4.c    ****     /* Select the Output data rate, range of Gyroscope sensor */
  68:main_cm4.c    ****     bmi160Dev.gyro_cfg.odr = BMI160_GYRO_ODR_1600HZ;
  69              		.loc 1 68 0
  70 0030 6273     		strb	r2, [r4, #13]
  69:main_cm4.c    ****     bmi160Dev.gyro_cfg.range = BMI160_GYRO_RANGE_125_DPS;
  71              		.loc 1 69 0
  72 0032 0422     		movs	r2, #4
  73 0034 A273     		strb	r2, [r4, #14]
  70:main_cm4.c    ****     bmi160Dev.gyro_cfg.bw = BMI160_GYRO_BW_OSR4_MODE;
  74              		.loc 1 70 0
  75 0036 E373     		strb	r3, [r4, #15]
  71:main_cm4.c    **** 
  72:main_cm4.c    ****     /* Select the power mode of Gyroscope sensor */
  73:main_cm4.c    ****     bmi160Dev.gyro_cfg.power = BMI160_GYRO_NORMAL_MODE;
  76              		.loc 1 73 0
  77 0038 1523     		movs	r3, #21
  78 003a 2373     		strb	r3, [r4, #12]
  74:main_cm4.c    **** 
  75:main_cm4.c    ****     /* Set the sensor configuration */
  76:main_cm4.c    ****     bmi160_set_sens_conf(&bmi160Dev);
  79              		.loc 1 76 0
  80 003c 2046     		mov	r0, r4
  81 003e FFF7FEFF 		bl	bmi160_set_sens_conf
  82              	.LVL2:
  77:main_cm4.c    ****     bmi160Dev.delay_ms(50);
  83              		.loc 1 77 0
  84 0042 636A     		ldr	r3, [r4, #36]
  85 0044 3220     		movs	r0, #50
  86 0046 9847     		blx	r3
  87              	.LVL3:
  88 0048 10BD     		pop	{r4, pc}
  89              	.L4:
  90 004a 00BF     		.align	2
  91              	.L3:
  92 004c 00000000 		.word	.LANCHOR0
  93 0050 00000000 		.word	Read_I2C
  94 0054 00000000 		.word	Write_I2C
ARM GAS  C:\Users\Mathieu\AppData\Local\Temp\cciy10yY.s 			page 4


  95 0058 00000000 		.word	vTaskDelay
  96              		.cfi_endproc
  97              	.LFE515:
  98              		.size	bmi160Init, .-bmi160Init
  99              		.section	.text.motionTask,"ax",%progbits
 100              		.align	2
 101              		.global	motionTask
 102              		.thumb
 103              		.thumb_func
 104              		.type	motionTask, %function
 105              	motionTask:
 106              	.LFB516:
  78:main_cm4.c    **** }
  79:main_cm4.c    **** 
  80:main_cm4.c    **** void motionTask(void *arg)
  81:main_cm4.c    **** {
 107              		.loc 1 81 0
 108              		.cfi_startproc
 109              		@ args = 0, pretend = 0, frame = 16
 110              		@ frame_needed = 0, uses_anonymous_args = 0
 111              	.LVL4:
 112 0000 00B5     		push	{lr}
 113              		.cfi_def_cfa_offset 4
 114              		.cfi_offset 14, -4
 115 0002 85B0     		sub	sp, sp, #20
 116              		.cfi_def_cfa_offset 24
  82:main_cm4.c    ****     (void)arg;
  83:main_cm4.c    ****     
  84:main_cm4.c    ****     I2C_Start();
 117              		.loc 1 84 0
 118 0004 FFF7FEFF 		bl	I2C_Start
 119              	.LVL5:
  85:main_cm4.c    ****     bmi160Init();
 120              		.loc 1 85 0
 121 0008 FFF7FEFF 		bl	bmi160Init
 122              	.LVL6:
 123              	.L6:
  86:main_cm4.c    ****     struct bmi160_sensor_data acc;
  87:main_cm4.c    ****     float gx, gy, gz;
  88:main_cm4.c    ****     
  89:main_cm4.c    ****     for(;;)
  90:main_cm4.c    ****     {
  91:main_cm4.c    ****         bmi160_get_sensor_data(BMI160_ACCEL_ONLY,&acc,NULL, &bmi160Dev);
 124              		.loc 1 91 0 discriminator 1
 125 000c 034B     		ldr	r3, .L8
 126 000e 0022     		movs	r2, #0
 127 0010 01A9     		add	r1, sp, #4
 128 0012 0120     		movs	r0, #1
 129 0014 FFF7FEFF 		bl	bmi160_get_sensor_data
 130              	.LVL7:
 131 0018 F8E7     		b	.L6
 132              	.L9:
 133 001a 00BF     		.align	2
 134              	.L8:
 135 001c 00000000 		.word	.LANCHOR0
 136              		.cfi_endproc
 137              	.LFE516:
ARM GAS  C:\Users\Mathieu\AppData\Local\Temp\cciy10yY.s 			page 5


 138              		.size	motionTask, .-motionTask
 139              		.section	.text.Write_I2C,"ax",%progbits
 140              		.align	2
 141              		.thumb
 142              		.thumb_func
 143              		.type	Write_I2C, %function
 144              	Write_I2C:
 145              	.LFB513:
  21:main_cm4.c    ****     Cy_SCB_I2C_MasterSendStart(I2C_HW, dev_addr,CY_SCB_I2C_WRITE_XFER,0,&I2C_context); //Mode écri
 146              		.loc 1 21 0
 147              		.cfi_startproc
 148              		@ args = 0, pretend = 0, frame = 0
 149              		@ frame_needed = 0, uses_anonymous_args = 0
 150              	.LVL8:
 151 0000 2DE9F041 		push	{r4, r5, r6, r7, r8, lr}
 152              		.cfi_def_cfa_offset 24
 153              		.cfi_offset 4, -24
 154              		.cfi_offset 5, -20
 155              		.cfi_offset 6, -16
 156              		.cfi_offset 7, -12
 157              		.cfi_offset 8, -8
 158              		.cfi_offset 14, -4
 159 0004 82B0     		sub	sp, sp, #8
 160              		.cfi_def_cfa_offset 32
 161 0006 8846     		mov	r8, r1
 162 0008 1646     		mov	r6, r2
 163 000a 1D46     		mov	r5, r3
  22:main_cm4.c    ****     Cy_SCB_I2C_MasterWriteByte(I2C_HW, reg_addr,0,&I2C_context); //Précision du registre
 164              		.loc 1 22 0
 165 000c 114C     		ldr	r4, .L14
 166 000e 124F     		ldr	r7, .L14+4
 167 0010 0097     		str	r7, [sp]
 168 0012 0023     		movs	r3, #0
 169              	.LVL9:
 170 0014 1A46     		mov	r2, r3
 171              	.LVL10:
 172 0016 0146     		mov	r1, r0
 173              	.LVL11:
 174 0018 2046     		mov	r0, r4
 175              	.LVL12:
 176 001a FFF7FEFF 		bl	Cy_SCB_I2C_MasterSendStart
 177              	.LVL13:
  23:main_cm4.c    ****     for(int i = 0; i< len;i++)
 178              		.loc 1 23 0
 179 001e 3B46     		mov	r3, r7
 180 0020 0022     		movs	r2, #0
 181 0022 4146     		mov	r1, r8
 182 0024 2046     		mov	r0, r4
 183 0026 FFF7FEFF 		bl	Cy_SCB_I2C_MasterWriteByte
 184              	.LVL14:
 185              	.LBB4:
  24:main_cm4.c    ****     {
 186              		.loc 1 24 0
 187 002a 0024     		movs	r4, #0
 188 002c 06E0     		b	.L11
 189              	.LVL15:
 190              	.L12:
ARM GAS  C:\Users\Mathieu\AppData\Local\Temp\cciy10yY.s 			page 6


  26:main_cm4.c    ****     }
 191              		.loc 1 26 0 discriminator 3
 192 002e 0A4B     		ldr	r3, .L14+4
 193 0030 0022     		movs	r2, #0
 194 0032 315D     		ldrb	r1, [r6, r4]	@ zero_extendqisi2
 195 0034 0748     		ldr	r0, .L14
 196 0036 FFF7FEFF 		bl	Cy_SCB_I2C_MasterWriteByte
 197              	.LVL16:
  24:main_cm4.c    ****     {
 198              		.loc 1 24 0 discriminator 3
 199 003a 0134     		adds	r4, r4, #1
 200              	.LVL17:
 201              	.L11:
  24:main_cm4.c    ****     {
 202              		.loc 1 24 0 is_stmt 0 discriminator 1
 203 003c AC42     		cmp	r4, r5
 204 003e F6DB     		blt	.L12
 205              	.LBE4:
  28:main_cm4.c    ****     
 206              		.loc 1 28 0 is_stmt 1
 207 0040 054A     		ldr	r2, .L14+4
 208 0042 0021     		movs	r1, #0
 209 0044 0348     		ldr	r0, .L14
 210 0046 FFF7FEFF 		bl	Cy_SCB_I2C_MasterSendStop
 211              	.LVL18:
  31:main_cm4.c    **** 
 212              		.loc 1 31 0
 213 004a 0020     		movs	r0, #0
 214 004c 02B0     		add	sp, sp, #8
 215              		.cfi_def_cfa_offset 24
 216              		@ sp needed
 217 004e BDE8F081 		pop	{r4, r5, r6, r7, r8, pc}
 218              	.LVL19:
 219              	.L15:
 220 0052 00BF     		.align	2
 221              	.L14:
 222 0054 00006440 		.word	1080295424
 223 0058 00000000 		.word	I2C_context
 224              		.cfi_endproc
 225              	.LFE513:
 226              		.size	Write_I2C, .-Write_I2C
 227              		.section	.text.Read_I2C,"ax",%progbits
 228              		.align	2
 229              		.thumb
 230              		.thumb_func
 231              		.type	Read_I2C, %function
 232              	Read_I2C:
 233              	.LFB514:
  34:main_cm4.c    ****     Cy_SCB_I2C_MasterSendStart(I2C_HW, dev_addr,CY_SCB_I2C_WRITE_XFER,0,&I2C_context); //Mode écri
 234              		.loc 1 34 0
 235              		.cfi_startproc
 236              		@ args = 0, pretend = 0, frame = 0
 237              		@ frame_needed = 0, uses_anonymous_args = 0
 238              	.LVL20:
 239 0000 2DE9F043 		push	{r4, r5, r6, r7, r8, r9, lr}
 240              		.cfi_def_cfa_offset 28
 241              		.cfi_offset 4, -28
ARM GAS  C:\Users\Mathieu\AppData\Local\Temp\cciy10yY.s 			page 7


 242              		.cfi_offset 5, -24
 243              		.cfi_offset 6, -20
 244              		.cfi_offset 7, -16
 245              		.cfi_offset 8, -12
 246              		.cfi_offset 9, -8
 247              		.cfi_offset 14, -4
 248 0004 83B0     		sub	sp, sp, #12
 249              		.cfi_def_cfa_offset 40
 250 0006 8046     		mov	r8, r0
 251 0008 8946     		mov	r9, r1
 252 000a 1646     		mov	r6, r2
 253 000c 1D46     		mov	r5, r3
  35:main_cm4.c    ****     Cy_SCB_I2C_MasterWriteByte(I2C_HW, reg_addr,0,&I2C_context); //Précision du registre
 254              		.loc 1 35 0
 255 000e 1B4C     		ldr	r4, .L20
 256 0010 1B4F     		ldr	r7, .L20+4
 257 0012 0097     		str	r7, [sp]
 258 0014 0023     		movs	r3, #0
 259              	.LVL21:
 260 0016 1A46     		mov	r2, r3
 261              	.LVL22:
 262 0018 0146     		mov	r1, r0
 263              	.LVL23:
 264 001a 2046     		mov	r0, r4
 265              	.LVL24:
 266 001c FFF7FEFF 		bl	Cy_SCB_I2C_MasterSendStart
 267              	.LVL25:
  36:main_cm4.c    ****     Cy_SCB_I2C_MasterSendReStart(I2C_HW, dev_addr,CY_SCB_I2C_READ_XFER,0,&I2C_context); //Mode écr
 268              		.loc 1 36 0
 269 0020 3B46     		mov	r3, r7
 270 0022 0022     		movs	r2, #0
 271 0024 4946     		mov	r1, r9
 272 0026 2046     		mov	r0, r4
 273 0028 FFF7FEFF 		bl	Cy_SCB_I2C_MasterWriteByte
 274              	.LVL26:
  37:main_cm4.c    ****     for(int i = 0; i< len-1;i++)
 275              		.loc 1 37 0
 276 002c 0097     		str	r7, [sp]
 277 002e 0023     		movs	r3, #0
 278 0030 0122     		movs	r2, #1
 279 0032 4146     		mov	r1, r8
 280 0034 2046     		mov	r0, r4
 281 0036 FFF7FEFF 		bl	Cy_SCB_I2C_MasterSendReStart
 282              	.LVL27:
 283              	.LBB5:
  38:main_cm4.c    ****     {
 284              		.loc 1 38 0
 285 003a 0024     		movs	r4, #0
 286 003c 08E0     		b	.L17
 287              	.LVL28:
 288              	.L18:
  40:main_cm4.c    ****     }
 289              		.loc 1 40 0 discriminator 3
 290 003e 104B     		ldr	r3, .L20+4
 291 0040 0093     		str	r3, [sp]
 292 0042 0023     		movs	r3, #0
 293 0044 3219     		adds	r2, r6, r4
ARM GAS  C:\Users\Mathieu\AppData\Local\Temp\cciy10yY.s 			page 8


 294 0046 1946     		mov	r1, r3
 295 0048 0C48     		ldr	r0, .L20
 296 004a FFF7FEFF 		bl	Cy_SCB_I2C_MasterReadByte
 297              	.LVL29:
  38:main_cm4.c    ****     {
 298              		.loc 1 38 0 discriminator 3
 299 004e 0134     		adds	r4, r4, #1
 300              	.LVL30:
 301              	.L17:
  38:main_cm4.c    ****     {
 302              		.loc 1 38 0 is_stmt 0 discriminator 1
 303 0050 6B1E     		subs	r3, r5, #1
 304 0052 9C42     		cmp	r4, r3
 305 0054 F3DB     		blt	.L18
 306              	.LBE5:
  42:main_cm4.c    ****     Cy_SCB_I2C_MasterSendStop(I2C_HW,0,&I2C_context); //arrêt
 307              		.loc 1 42 0 is_stmt 1
 308 0056 1A46     		mov	r2, r3
 309 0058 084C     		ldr	r4, .L20
 310              	.LVL31:
 311 005a 094D     		ldr	r5, .L20+4
 312 005c 0095     		str	r5, [sp]
 313 005e 0023     		movs	r3, #0
 314 0060 3244     		add	r2, r2, r6
 315 0062 0121     		movs	r1, #1
 316 0064 2046     		mov	r0, r4
 317 0066 FFF7FEFF 		bl	Cy_SCB_I2C_MasterReadByte
 318              	.LVL32:
  43:main_cm4.c    ****     
 319              		.loc 1 43 0
 320 006a 2A46     		mov	r2, r5
 321 006c 0021     		movs	r1, #0
 322 006e 2046     		mov	r0, r4
 323 0070 FFF7FEFF 		bl	Cy_SCB_I2C_MasterSendStop
 324              	.LVL33:
  46:main_cm4.c    **** 
 325              		.loc 1 46 0
 326 0074 0020     		movs	r0, #0
 327 0076 03B0     		add	sp, sp, #12
 328              		.cfi_def_cfa_offset 28
 329              		@ sp needed
 330 0078 BDE8F083 		pop	{r4, r5, r6, r7, r8, r9, pc}
 331              	.LVL34:
 332              	.L21:
 333              		.align	2
 334              	.L20:
 335 007c 00006440 		.word	1080295424
 336 0080 00000000 		.word	I2C_context
 337              		.cfi_endproc
 338              	.LFE514:
 339              		.size	Read_I2C, .-Read_I2C
 340              		.section	.text.main,"ax",%progbits
 341              		.align	2
 342              		.global	main
 343              		.thumb
 344              		.thumb_func
 345              		.type	main, %function
ARM GAS  C:\Users\Mathieu\AppData\Local\Temp\cciy10yY.s 			page 9


 346              	main:
 347              	.LFB517:
  92:main_cm4.c    ****     }
  93:main_cm4.c    ****     gx = acc.x;
  94:main_cm4.c    ****     gy = acc.y;
  95:main_cm4.c    ****     gz = acc.z;
  96:main_cm4.c    ****     
  97:main_cm4.c    ****     printf("ax = %1.2f,ay = %1.2f,az = %1.2f\r\n",gx,gy,gz);
  98:main_cm4.c    ****     
  99:main_cm4.c    ****     vTaskDelay(200);
 100:main_cm4.c    **** 
 101:main_cm4.c    **** }
 102:main_cm4.c    **** 
 103:main_cm4.c    **** int main(void)
 104:main_cm4.c    **** {
 348              		.loc 1 104 0
 349              		.cfi_startproc
 350              		@ Volatile: function does not return.
 351              		@ args = 0, pretend = 0, frame = 0
 352              		@ frame_needed = 0, uses_anonymous_args = 0
 353 0000 00B5     		push	{lr}
 354              		.cfi_def_cfa_offset 4
 355              		.cfi_offset 14, -4
 356 0002 83B0     		sub	sp, sp, #12
 357              		.cfi_def_cfa_offset 16
 358              	.LBB6:
 359              	.LBB7:
 360              		.file 2 "Generated_Source\\PSoC6\\pdl\\cmsis/include/cmsis_gcc.h"
   1:Generated_Source\PSoC6\pdl\cmsis/include/cmsis_gcc.h **** /**************************************************************************//**
   2:Generated_Source\PSoC6\pdl\cmsis/include/cmsis_gcc.h ****  * @file     cmsis_gcc.h
   3:Generated_Source\PSoC6\pdl\cmsis/include/cmsis_gcc.h ****  * @brief    CMSIS compiler GCC header file
   4:Generated_Source\PSoC6\pdl\cmsis/include/cmsis_gcc.h ****  * @version  V5.0.3
   5:Generated_Source\PSoC6\pdl\cmsis/include/cmsis_gcc.h ****  * @date     16. January 2018
   6:Generated_Source\PSoC6\pdl\cmsis/include/cmsis_gcc.h ****  ******************************************************************************/
   7:Generated_Source\PSoC6\pdl\cmsis/include/cmsis_gcc.h **** /*
   8:Generated_Source\PSoC6\pdl\cmsis/include/cmsis_gcc.h ****  * Copyright (c) 2009-2017 ARM Limited. All rights reserved.
   9:Generated_Source\PSoC6\pdl\cmsis/include/cmsis_gcc.h ****  *
  10:Generated_Source\PSoC6\pdl\cmsis/include/cmsis_gcc.h ****  * SPDX-License-Identifier: Apache-2.0
  11:Generated_Source\PSoC6\pdl\cmsis/include/cmsis_gcc.h ****  *
  12:Generated_Source\PSoC6\pdl\cmsis/include/cmsis_gcc.h ****  * Licensed under the Apache License, Version 2.0 (the License); you may
  13:Generated_Source\PSoC6\pdl\cmsis/include/cmsis_gcc.h ****  * not use this file except in compliance with the License.
  14:Generated_Source\PSoC6\pdl\cmsis/include/cmsis_gcc.h ****  * You may obtain a copy of the License at
  15:Generated_Source\PSoC6\pdl\cmsis/include/cmsis_gcc.h ****  *
  16:Generated_Source\PSoC6\pdl\cmsis/include/cmsis_gcc.h ****  * www.apache.org/licenses/LICENSE-2.0
  17:Generated_Source\PSoC6\pdl\cmsis/include/cmsis_gcc.h ****  *
  18:Generated_Source\PSoC6\pdl\cmsis/include/cmsis_gcc.h ****  * Unless required by applicable law or agreed to in writing, software
  19:Generated_Source\PSoC6\pdl\cmsis/include/cmsis_gcc.h ****  * distributed under the License is distributed on an AS IS BASIS, WITHOUT
  20:Generated_Source\PSoC6\pdl\cmsis/include/cmsis_gcc.h ****  * WARRANTIES OR CONDITIONS OF ANY KIND, either express or implied.
  21:Generated_Source\PSoC6\pdl\cmsis/include/cmsis_gcc.h ****  * See the License for the specific language governing permissions and
  22:Generated_Source\PSoC6\pdl\cmsis/include/cmsis_gcc.h ****  * limitations under the License.
  23:Generated_Source\PSoC6\pdl\cmsis/include/cmsis_gcc.h ****  */
  24:Generated_Source\PSoC6\pdl\cmsis/include/cmsis_gcc.h **** 
  25:Generated_Source\PSoC6\pdl\cmsis/include/cmsis_gcc.h **** #ifndef __CMSIS_GCC_H
  26:Generated_Source\PSoC6\pdl\cmsis/include/cmsis_gcc.h **** #define __CMSIS_GCC_H
  27:Generated_Source\PSoC6\pdl\cmsis/include/cmsis_gcc.h **** 
  28:Generated_Source\PSoC6\pdl\cmsis/include/cmsis_gcc.h **** /* ignore some GCC warnings */
  29:Generated_Source\PSoC6\pdl\cmsis/include/cmsis_gcc.h **** #pragma GCC diagnostic push
ARM GAS  C:\Users\Mathieu\AppData\Local\Temp\cciy10yY.s 			page 10


  30:Generated_Source\PSoC6\pdl\cmsis/include/cmsis_gcc.h **** #pragma GCC diagnostic ignored "-Wsign-conversion"
  31:Generated_Source\PSoC6\pdl\cmsis/include/cmsis_gcc.h **** #pragma GCC diagnostic ignored "-Wconversion"
  32:Generated_Source\PSoC6\pdl\cmsis/include/cmsis_gcc.h **** #pragma GCC diagnostic ignored "-Wunused-parameter"
  33:Generated_Source\PSoC6\pdl\cmsis/include/cmsis_gcc.h **** 
  34:Generated_Source\PSoC6\pdl\cmsis/include/cmsis_gcc.h **** /* Fallback for __has_builtin */
  35:Generated_Source\PSoC6\pdl\cmsis/include/cmsis_gcc.h **** #ifndef __has_builtin
  36:Generated_Source\PSoC6\pdl\cmsis/include/cmsis_gcc.h ****   #define __has_builtin(x) (0)
  37:Generated_Source\PSoC6\pdl\cmsis/include/cmsis_gcc.h **** #endif
  38:Generated_Source\PSoC6\pdl\cmsis/include/cmsis_gcc.h **** 
  39:Generated_Source\PSoC6\pdl\cmsis/include/cmsis_gcc.h **** /* CMSIS compiler specific defines */
  40:Generated_Source\PSoC6\pdl\cmsis/include/cmsis_gcc.h **** #ifndef   __ASM
  41:Generated_Source\PSoC6\pdl\cmsis/include/cmsis_gcc.h ****   #define __ASM                                  __asm
  42:Generated_Source\PSoC6\pdl\cmsis/include/cmsis_gcc.h **** #endif
  43:Generated_Source\PSoC6\pdl\cmsis/include/cmsis_gcc.h **** #ifndef   __INLINE
  44:Generated_Source\PSoC6\pdl\cmsis/include/cmsis_gcc.h ****   #define __INLINE                               inline
  45:Generated_Source\PSoC6\pdl\cmsis/include/cmsis_gcc.h **** #endif
  46:Generated_Source\PSoC6\pdl\cmsis/include/cmsis_gcc.h **** #ifndef   __STATIC_INLINE
  47:Generated_Source\PSoC6\pdl\cmsis/include/cmsis_gcc.h ****   #define __STATIC_INLINE                        static inline
  48:Generated_Source\PSoC6\pdl\cmsis/include/cmsis_gcc.h **** #endif
  49:Generated_Source\PSoC6\pdl\cmsis/include/cmsis_gcc.h **** #ifndef   __STATIC_FORCEINLINE                 
  50:Generated_Source\PSoC6\pdl\cmsis/include/cmsis_gcc.h ****   #define __STATIC_FORCEINLINE                   __attribute__((always_inline)) static inline
  51:Generated_Source\PSoC6\pdl\cmsis/include/cmsis_gcc.h **** #endif                                           
  52:Generated_Source\PSoC6\pdl\cmsis/include/cmsis_gcc.h **** #ifndef   __NO_RETURN
  53:Generated_Source\PSoC6\pdl\cmsis/include/cmsis_gcc.h ****   #define __NO_RETURN                            __attribute__((__noreturn__))
  54:Generated_Source\PSoC6\pdl\cmsis/include/cmsis_gcc.h **** #endif
  55:Generated_Source\PSoC6\pdl\cmsis/include/cmsis_gcc.h **** #ifndef   __USED
  56:Generated_Source\PSoC6\pdl\cmsis/include/cmsis_gcc.h ****   #define __USED                                 __attribute__((used))
  57:Generated_Source\PSoC6\pdl\cmsis/include/cmsis_gcc.h **** #endif
  58:Generated_Source\PSoC6\pdl\cmsis/include/cmsis_gcc.h **** #ifndef   __WEAK
  59:Generated_Source\PSoC6\pdl\cmsis/include/cmsis_gcc.h ****   #define __WEAK                                 __attribute__((weak))
  60:Generated_Source\PSoC6\pdl\cmsis/include/cmsis_gcc.h **** #endif
  61:Generated_Source\PSoC6\pdl\cmsis/include/cmsis_gcc.h **** #ifndef   __PACKED
  62:Generated_Source\PSoC6\pdl\cmsis/include/cmsis_gcc.h ****   #define __PACKED                               __attribute__((packed, aligned(1)))
  63:Generated_Source\PSoC6\pdl\cmsis/include/cmsis_gcc.h **** #endif
  64:Generated_Source\PSoC6\pdl\cmsis/include/cmsis_gcc.h **** #ifndef   __PACKED_STRUCT
  65:Generated_Source\PSoC6\pdl\cmsis/include/cmsis_gcc.h ****   #define __PACKED_STRUCT                        struct __attribute__((packed, aligned(1)))
  66:Generated_Source\PSoC6\pdl\cmsis/include/cmsis_gcc.h **** #endif
  67:Generated_Source\PSoC6\pdl\cmsis/include/cmsis_gcc.h **** #ifndef   __PACKED_UNION
  68:Generated_Source\PSoC6\pdl\cmsis/include/cmsis_gcc.h ****   #define __PACKED_UNION                         union __attribute__((packed, aligned(1)))
  69:Generated_Source\PSoC6\pdl\cmsis/include/cmsis_gcc.h **** #endif
  70:Generated_Source\PSoC6\pdl\cmsis/include/cmsis_gcc.h **** #ifndef   __UNALIGNED_UINT32        /* deprecated */
  71:Generated_Source\PSoC6\pdl\cmsis/include/cmsis_gcc.h ****   #pragma GCC diagnostic push
  72:Generated_Source\PSoC6\pdl\cmsis/include/cmsis_gcc.h ****   #pragma GCC diagnostic ignored "-Wpacked"
  73:Generated_Source\PSoC6\pdl\cmsis/include/cmsis_gcc.h ****   #pragma GCC diagnostic ignored "-Wattributes"
  74:Generated_Source\PSoC6\pdl\cmsis/include/cmsis_gcc.h ****   struct __attribute__((packed)) T_UINT32 { uint32_t v; };
  75:Generated_Source\PSoC6\pdl\cmsis/include/cmsis_gcc.h ****   #pragma GCC diagnostic pop
  76:Generated_Source\PSoC6\pdl\cmsis/include/cmsis_gcc.h ****   #define __UNALIGNED_UINT32(x)                  (((struct T_UINT32 *)(x))->v)
  77:Generated_Source\PSoC6\pdl\cmsis/include/cmsis_gcc.h **** #endif
  78:Generated_Source\PSoC6\pdl\cmsis/include/cmsis_gcc.h **** #ifndef   __UNALIGNED_UINT16_WRITE
  79:Generated_Source\PSoC6\pdl\cmsis/include/cmsis_gcc.h ****   #pragma GCC diagnostic push
  80:Generated_Source\PSoC6\pdl\cmsis/include/cmsis_gcc.h ****   #pragma GCC diagnostic ignored "-Wpacked"
  81:Generated_Source\PSoC6\pdl\cmsis/include/cmsis_gcc.h ****   #pragma GCC diagnostic ignored "-Wattributes"
  82:Generated_Source\PSoC6\pdl\cmsis/include/cmsis_gcc.h ****   __PACKED_STRUCT T_UINT16_WRITE { uint16_t v; };
  83:Generated_Source\PSoC6\pdl\cmsis/include/cmsis_gcc.h ****   #pragma GCC diagnostic pop
  84:Generated_Source\PSoC6\pdl\cmsis/include/cmsis_gcc.h ****   #define __UNALIGNED_UINT16_WRITE(addr, val)    (void)((((struct T_UINT16_WRITE *)(void *)(addr))-
  85:Generated_Source\PSoC6\pdl\cmsis/include/cmsis_gcc.h **** #endif
  86:Generated_Source\PSoC6\pdl\cmsis/include/cmsis_gcc.h **** #ifndef   __UNALIGNED_UINT16_READ
ARM GAS  C:\Users\Mathieu\AppData\Local\Temp\cciy10yY.s 			page 11


  87:Generated_Source\PSoC6\pdl\cmsis/include/cmsis_gcc.h ****   #pragma GCC diagnostic push
  88:Generated_Source\PSoC6\pdl\cmsis/include/cmsis_gcc.h ****   #pragma GCC diagnostic ignored "-Wpacked"
  89:Generated_Source\PSoC6\pdl\cmsis/include/cmsis_gcc.h ****   #pragma GCC diagnostic ignored "-Wattributes"
  90:Generated_Source\PSoC6\pdl\cmsis/include/cmsis_gcc.h ****   __PACKED_STRUCT T_UINT16_READ { uint16_t v; };
  91:Generated_Source\PSoC6\pdl\cmsis/include/cmsis_gcc.h ****   #pragma GCC diagnostic pop
  92:Generated_Source\PSoC6\pdl\cmsis/include/cmsis_gcc.h ****   #define __UNALIGNED_UINT16_READ(addr)          (((const struct T_UINT16_READ *)(const void *)(add
  93:Generated_Source\PSoC6\pdl\cmsis/include/cmsis_gcc.h **** #endif
  94:Generated_Source\PSoC6\pdl\cmsis/include/cmsis_gcc.h **** #ifndef   __UNALIGNED_UINT32_WRITE
  95:Generated_Source\PSoC6\pdl\cmsis/include/cmsis_gcc.h ****   #pragma GCC diagnostic push
  96:Generated_Source\PSoC6\pdl\cmsis/include/cmsis_gcc.h ****   #pragma GCC diagnostic ignored "-Wpacked"
  97:Generated_Source\PSoC6\pdl\cmsis/include/cmsis_gcc.h ****   #pragma GCC diagnostic ignored "-Wattributes"
  98:Generated_Source\PSoC6\pdl\cmsis/include/cmsis_gcc.h ****   __PACKED_STRUCT T_UINT32_WRITE { uint32_t v; };
  99:Generated_Source\PSoC6\pdl\cmsis/include/cmsis_gcc.h ****   #pragma GCC diagnostic pop
 100:Generated_Source\PSoC6\pdl\cmsis/include/cmsis_gcc.h ****   #define __UNALIGNED_UINT32_WRITE(addr, val)    (void)((((struct T_UINT32_WRITE *)(void *)(addr))-
 101:Generated_Source\PSoC6\pdl\cmsis/include/cmsis_gcc.h **** #endif
 102:Generated_Source\PSoC6\pdl\cmsis/include/cmsis_gcc.h **** #ifndef   __UNALIGNED_UINT32_READ
 103:Generated_Source\PSoC6\pdl\cmsis/include/cmsis_gcc.h ****   #pragma GCC diagnostic push
 104:Generated_Source\PSoC6\pdl\cmsis/include/cmsis_gcc.h ****   #pragma GCC diagnostic ignored "-Wpacked"
 105:Generated_Source\PSoC6\pdl\cmsis/include/cmsis_gcc.h ****   #pragma GCC diagnostic ignored "-Wattributes"
 106:Generated_Source\PSoC6\pdl\cmsis/include/cmsis_gcc.h ****   __PACKED_STRUCT T_UINT32_READ { uint32_t v; };
 107:Generated_Source\PSoC6\pdl\cmsis/include/cmsis_gcc.h ****   #pragma GCC diagnostic pop
 108:Generated_Source\PSoC6\pdl\cmsis/include/cmsis_gcc.h ****   #define __UNALIGNED_UINT32_READ(addr)          (((const struct T_UINT32_READ *)(const void *)(add
 109:Generated_Source\PSoC6\pdl\cmsis/include/cmsis_gcc.h **** #endif
 110:Generated_Source\PSoC6\pdl\cmsis/include/cmsis_gcc.h **** #ifndef   __ALIGNED
 111:Generated_Source\PSoC6\pdl\cmsis/include/cmsis_gcc.h ****   #define __ALIGNED(x)                           __attribute__((aligned(x)))
 112:Generated_Source\PSoC6\pdl\cmsis/include/cmsis_gcc.h **** #endif
 113:Generated_Source\PSoC6\pdl\cmsis/include/cmsis_gcc.h **** #ifndef   __RESTRICT
 114:Generated_Source\PSoC6\pdl\cmsis/include/cmsis_gcc.h ****   #define __RESTRICT                             __restrict
 115:Generated_Source\PSoC6\pdl\cmsis/include/cmsis_gcc.h **** #endif
 116:Generated_Source\PSoC6\pdl\cmsis/include/cmsis_gcc.h **** 
 117:Generated_Source\PSoC6\pdl\cmsis/include/cmsis_gcc.h **** 
 118:Generated_Source\PSoC6\pdl\cmsis/include/cmsis_gcc.h **** /* ###########################  Core Function Access  ########################### */
 119:Generated_Source\PSoC6\pdl\cmsis/include/cmsis_gcc.h **** /** \ingroup  CMSIS_Core_FunctionInterface
 120:Generated_Source\PSoC6\pdl\cmsis/include/cmsis_gcc.h ****     \defgroup CMSIS_Core_RegAccFunctions CMSIS Core Register Access Functions
 121:Generated_Source\PSoC6\pdl\cmsis/include/cmsis_gcc.h ****   @{
 122:Generated_Source\PSoC6\pdl\cmsis/include/cmsis_gcc.h ****  */
 123:Generated_Source\PSoC6\pdl\cmsis/include/cmsis_gcc.h **** 
 124:Generated_Source\PSoC6\pdl\cmsis/include/cmsis_gcc.h **** /**
 125:Generated_Source\PSoC6\pdl\cmsis/include/cmsis_gcc.h ****   \brief   Enable IRQ Interrupts
 126:Generated_Source\PSoC6\pdl\cmsis/include/cmsis_gcc.h ****   \details Enables IRQ interrupts by clearing the I-bit in the CPSR.
 127:Generated_Source\PSoC6\pdl\cmsis/include/cmsis_gcc.h ****            Can only be executed in Privileged modes.
 128:Generated_Source\PSoC6\pdl\cmsis/include/cmsis_gcc.h ****  */
 129:Generated_Source\PSoC6\pdl\cmsis/include/cmsis_gcc.h **** __STATIC_FORCEINLINE void __enable_irq(void)
 130:Generated_Source\PSoC6\pdl\cmsis/include/cmsis_gcc.h **** {
 131:Generated_Source\PSoC6\pdl\cmsis/include/cmsis_gcc.h ****   __ASM volatile ("cpsie i" : : : "memory");
 361              		.loc 2 131 0
 362              		.syntax unified
 363              	@ 131 "Generated_Source\PSoC6\pdl\cmsis/include/cmsis_gcc.h" 1
 364 0004 62B6     		cpsie i
 365              	@ 0 "" 2
 366              		.thumb
 367              		.syntax unified
 368              	.LBE7:
 369              	.LBE6:
 105:main_cm4.c    ****     __enable_irq(); /* Enable global interrupts. */
 106:main_cm4.c    ****     
 107:main_cm4.c    ****     UART_Start();
ARM GAS  C:\Users\Mathieu\AppData\Local\Temp\cciy10yY.s 			page 12


 370              		.loc 1 107 0
 371 0006 FFF7FEFF 		bl	UART_Start
 372              	.LVL35:
 108:main_cm4.c    ****     //I2C_Start();
 109:main_cm4.c    ****     
 110:main_cm4.c    ****     //UART_PutString("Acceleration du BMI160\r\n");
 111:main_cm4.c    ****     printf("Acceleration du BMI160\r\n");
 373              		.loc 1 111 0
 374 000a 0848     		ldr	r0, .L25
 375 000c FFF7FEFF 		bl	puts
 376              	.LVL36:
 112:main_cm4.c    ****     
 113:main_cm4.c    ****     /* Place your initialization/startup code here (e.g. MyInst_Start()) */
 114:main_cm4.c    ****     
 115:main_cm4.c    ****     
 116:main_cm4.c    ****     xTaskCreate(motionTask,"motion task",400,0,1,0);
 377              		.loc 1 116 0
 378 0010 0023     		movs	r3, #0
 379 0012 0193     		str	r3, [sp, #4]
 380 0014 0122     		movs	r2, #1
 381 0016 0092     		str	r2, [sp]
 382 0018 4FF4C872 		mov	r2, #400
 383 001c 0449     		ldr	r1, .L25+4
 384 001e 0548     		ldr	r0, .L25+8
 385 0020 FFF7FEFF 		bl	xTaskCreate
 386              	.LVL37:
 117:main_cm4.c    ****     vTaskStartScheduler();
 387              		.loc 1 117 0
 388 0024 FFF7FEFF 		bl	vTaskStartScheduler
 389              	.LVL38:
 390              	.L23:
 391 0028 FEE7     		b	.L23
 392              	.L26:
 393 002a 00BF     		.align	2
 394              	.L25:
 395 002c 00000000 		.word	.LC0
 396 0030 18000000 		.word	.LC1
 397 0034 00000000 		.word	motionTask
 398              		.cfi_endproc
 399              	.LFE517:
 400              		.size	main, .-main
 401              		.section	.rodata.str1.4,"aMS",%progbits,1
 402              		.align	2
 403              	.LC0:
 404 0000 41636365 		.ascii	"Acceleration du BMI160\015\000"
 404      6C657261 
 404      74696F6E 
 404      20647520 
 404      424D4931 
 405              	.LC1:
 406 0018 6D6F7469 		.ascii	"motion task\000"
 406      6F6E2074 
 406      61736B00 
 407              		.bss
 408              		.align	2
 409              		.set	.LANCHOR0,. + 0
 410              		.type	bmi160Dev, %object
ARM GAS  C:\Users\Mathieu\AppData\Local\Temp\cciy10yY.s 			page 13


 411              		.size	bmi160Dev, 40
 412              	bmi160Dev:
 413 0000 00000000 		.space	40
 413      00000000 
 413      00000000 
 413      00000000 
 413      00000000 
 414              		.text
 415              	.Letext0:
 416              		.file 3 "c:\\program files (x86)\\cypress\\psoc creator\\4.4\\psoc creator\\import\\gnu\\arm\\5.4.
 417              		.file 4 "c:\\program files (x86)\\cypress\\psoc creator\\4.4\\psoc creator\\import\\gnu\\arm\\5.4.
 418              		.file 5 "Generated_Source\\PSoC6\\pdl\\devices/psoc6/include/ip/cyip_scb.h"
 419              		.file 6 "Generated_Source\\PSoC6\\pdl\\devices/psoc6/include/psoc6_01_config.h"
 420              		.file 7 "Generated_Source\\PSoC6\\pdl\\drivers/peripheral/device/cy_device.h"
 421              		.file 8 "Generated_Source\\PSoC6\\pdl\\drivers/peripheral/scb/cy_scb_i2c.h"
 422              		.file 9 "Generated_Source\\PSoC6\\pdl\\drivers/peripheral/scb/cy_scb_uart.h"
 423              		.file 10 "..\\..\\bmi160_library/bmi160_defs.h"
 424              		.file 11 "Generated_Source\\PSoC6\\pdl\\cmsis/include/core_cm4.h"
 425              		.file 12 "Generated_Source\\PSoC6/I2C.h"
 426              		.file 13 "Generated_Source\\PSoC6/UART.h"
 427              		.file 14 "Generated_Source\\PSoC6\\pdl\\rtos/FreeRTOS/10.0.1/Source/include/task.h"
 428              		.file 15 "..\\..\\bmi160_library/bmi160.h"
 429              		.file 16 "<built-in>"